
./bomb:     file format elf64-x86-64


Disassembly of section .init:

0000000000001000 <_init>:
    1000:	48 83 ec 08          	sub    $0x8,%rsp
    1004:	48 8b 05 c5 4f 00 00 	mov    0x4fc5(%rip),%rax        # 5fd0 <__gmon_start__@Base>
    100b:	48 85 c0             	test   %rax,%rax
    100e:	74 02                	je     1012 <_init+0x12>
    1010:	ff d0                	call   *%rax
    1012:	48 83 c4 08          	add    $0x8,%rsp
    1016:	c3                   	ret

Disassembly of section .plt:

0000000000001020 <getenv@plt-0x10>:
    1020:	ff 35 ca 4f 00 00    	push   0x4fca(%rip)        # 5ff0 <_GLOBAL_OFFSET_TABLE_+0x8>
    1026:	ff 25 cc 4f 00 00    	jmp    *0x4fcc(%rip)        # 5ff8 <_GLOBAL_OFFSET_TABLE_+0x10>
    102c:	0f 1f 40 00          	nopl   0x0(%rax)

0000000000001030 <getenv@plt>:
    1030:	ff 25 ca 4f 00 00    	jmp    *0x4fca(%rip)        # 6000 <getenv@GLIBC_2.2.5>
    1036:	68 00 00 00 00       	push   $0x0
    103b:	e9 e0 ff ff ff       	jmp    1020 <_init+0x20>

0000000000001040 <__errno_location@plt>:
    1040:	ff 25 c2 4f 00 00    	jmp    *0x4fc2(%rip)        # 6008 <__errno_location@GLIBC_2.2.5>
    1046:	68 01 00 00 00       	push   $0x1
    104b:	e9 d0 ff ff ff       	jmp    1020 <_init+0x20>

0000000000001050 <strcpy@plt>:
    1050:	ff 25 ba 4f 00 00    	jmp    *0x4fba(%rip)        # 6010 <strcpy@GLIBC_2.2.5>
    1056:	68 02 00 00 00       	push   $0x2
    105b:	e9 c0 ff ff ff       	jmp    1020 <_init+0x20>

0000000000001060 <puts@plt>:
    1060:	ff 25 b2 4f 00 00    	jmp    *0x4fb2(%rip)        # 6018 <puts@GLIBC_2.2.5>
    1066:	68 03 00 00 00       	push   $0x3
    106b:	e9 b0 ff ff ff       	jmp    1020 <_init+0x20>

0000000000001070 <write@plt>:
    1070:	ff 25 aa 4f 00 00    	jmp    *0x4faa(%rip)        # 6020 <write@GLIBC_2.2.5>
    1076:	68 04 00 00 00       	push   $0x4
    107b:	e9 a0 ff ff ff       	jmp    1020 <_init+0x20>

0000000000001080 <strlen@plt>:
    1080:	ff 25 a2 4f 00 00    	jmp    *0x4fa2(%rip)        # 6028 <strlen@GLIBC_2.2.5>
    1086:	68 05 00 00 00       	push   $0x5
    108b:	e9 90 ff ff ff       	jmp    1020 <_init+0x20>

0000000000001090 <htons@plt>:
    1090:	ff 25 9a 4f 00 00    	jmp    *0x4f9a(%rip)        # 6030 <htons@GLIBC_2.2.5>
    1096:	68 06 00 00 00       	push   $0x6
    109b:	e9 80 ff ff ff       	jmp    1020 <_init+0x20>

00000000000010a0 <printf@plt>:
    10a0:	ff 25 92 4f 00 00    	jmp    *0x4f92(%rip)        # 6038 <printf@GLIBC_2.2.5>
    10a6:	68 07 00 00 00       	push   $0x7
    10ab:	e9 70 ff ff ff       	jmp    1020 <_init+0x20>

00000000000010b0 <alarm@plt>:
    10b0:	ff 25 8a 4f 00 00    	jmp    *0x4f8a(%rip)        # 6040 <alarm@GLIBC_2.2.5>
    10b6:	68 08 00 00 00       	push   $0x8
    10bb:	e9 60 ff ff ff       	jmp    1020 <_init+0x20>

00000000000010c0 <close@plt>:
    10c0:	ff 25 82 4f 00 00    	jmp    *0x4f82(%rip)        # 6048 <close@GLIBC_2.2.5>
    10c6:	68 09 00 00 00       	push   $0x9
    10cb:	e9 50 ff ff ff       	jmp    1020 <_init+0x20>

00000000000010d0 <read@plt>:
    10d0:	ff 25 7a 4f 00 00    	jmp    *0x4f7a(%rip)        # 6050 <read@GLIBC_2.2.5>
    10d6:	68 0a 00 00 00       	push   $0xa
    10db:	e9 40 ff ff ff       	jmp    1020 <_init+0x20>

00000000000010e0 <fgets@plt>:
    10e0:	ff 25 72 4f 00 00    	jmp    *0x4f72(%rip)        # 6058 <fgets@GLIBC_2.2.5>
    10e6:	68 0b 00 00 00       	push   $0xb
    10eb:	e9 30 ff ff ff       	jmp    1020 <_init+0x20>

00000000000010f0 <strcmp@plt>:
    10f0:	ff 25 6a 4f 00 00    	jmp    *0x4f6a(%rip)        # 6060 <strcmp@GLIBC_2.2.5>
    10f6:	68 0c 00 00 00       	push   $0xc
    10fb:	e9 20 ff ff ff       	jmp    1020 <_init+0x20>

0000000000001100 <signal@plt>:
    1100:	ff 25 62 4f 00 00    	jmp    *0x4f62(%rip)        # 6068 <signal@GLIBC_2.2.5>
    1106:	68 0d 00 00 00       	push   $0xd
    110b:	e9 10 ff ff ff       	jmp    1020 <_init+0x20>

0000000000001110 <gethostbyname@plt>:
    1110:	ff 25 5a 4f 00 00    	jmp    *0x4f5a(%rip)        # 6070 <gethostbyname@GLIBC_2.2.5>
    1116:	68 0e 00 00 00       	push   $0xe
    111b:	e9 00 ff ff ff       	jmp    1020 <_init+0x20>

0000000000001120 <fprintf@plt>:
    1120:	ff 25 52 4f 00 00    	jmp    *0x4f52(%rip)        # 6078 <fprintf@GLIBC_2.2.5>
    1126:	68 0f 00 00 00       	push   $0xf
    112b:	e9 f0 fe ff ff       	jmp    1020 <_init+0x20>

0000000000001130 <memcpy@plt>:
    1130:	ff 25 4a 4f 00 00    	jmp    *0x4f4a(%rip)        # 6080 <memcpy@GLIBC_2.14>
    1136:	68 10 00 00 00       	push   $0x10
    113b:	e9 e0 fe ff ff       	jmp    1020 <_init+0x20>

0000000000001140 <fflush@plt>:
    1140:	ff 25 42 4f 00 00    	jmp    *0x4f42(%rip)        # 6088 <fflush@GLIBC_2.2.5>
    1146:	68 11 00 00 00       	push   $0x11
    114b:	e9 d0 fe ff ff       	jmp    1020 <_init+0x20>

0000000000001150 <__isoc99_sscanf@plt>:
    1150:	ff 25 3a 4f 00 00    	jmp    *0x4f3a(%rip)        # 6090 <__isoc99_sscanf@GLIBC_2.7>
    1156:	68 12 00 00 00       	push   $0x12
    115b:	e9 c0 fe ff ff       	jmp    1020 <_init+0x20>

0000000000001160 <memmove@plt>:
    1160:	ff 25 32 4f 00 00    	jmp    *0x4f32(%rip)        # 6098 <memmove@GLIBC_2.2.5>
    1166:	68 13 00 00 00       	push   $0x13
    116b:	e9 b0 fe ff ff       	jmp    1020 <_init+0x20>

0000000000001170 <fopen@plt>:
    1170:	ff 25 2a 4f 00 00    	jmp    *0x4f2a(%rip)        # 60a0 <fopen@GLIBC_2.2.5>
    1176:	68 14 00 00 00       	push   $0x14
    117b:	e9 a0 fe ff ff       	jmp    1020 <_init+0x20>

0000000000001180 <sprintf@plt>:
    1180:	ff 25 22 4f 00 00    	jmp    *0x4f22(%rip)        # 60a8 <sprintf@GLIBC_2.2.5>
    1186:	68 15 00 00 00       	push   $0x15
    118b:	e9 90 fe ff ff       	jmp    1020 <_init+0x20>

0000000000001190 <exit@plt>:
    1190:	ff 25 1a 4f 00 00    	jmp    *0x4f1a(%rip)        # 60b0 <exit@GLIBC_2.2.5>
    1196:	68 16 00 00 00       	push   $0x16
    119b:	e9 80 fe ff ff       	jmp    1020 <_init+0x20>

00000000000011a0 <connect@plt>:
    11a0:	ff 25 12 4f 00 00    	jmp    *0x4f12(%rip)        # 60b8 <connect@GLIBC_2.2.5>
    11a6:	68 17 00 00 00       	push   $0x17
    11ab:	e9 70 fe ff ff       	jmp    1020 <_init+0x20>

00000000000011b0 <sleep@plt>:
    11b0:	ff 25 0a 4f 00 00    	jmp    *0x4f0a(%rip)        # 60c0 <sleep@GLIBC_2.2.5>
    11b6:	68 18 00 00 00       	push   $0x18
    11bb:	e9 60 fe ff ff       	jmp    1020 <_init+0x20>

00000000000011c0 <__ctype_b_loc@plt>:
    11c0:	ff 25 02 4f 00 00    	jmp    *0x4f02(%rip)        # 60c8 <__ctype_b_loc@GLIBC_2.3>
    11c6:	68 19 00 00 00       	push   $0x19
    11cb:	e9 50 fe ff ff       	jmp    1020 <_init+0x20>

00000000000011d0 <socket@plt>:
    11d0:	ff 25 fa 4e 00 00    	jmp    *0x4efa(%rip)        # 60d0 <socket@GLIBC_2.2.5>
    11d6:	68 1a 00 00 00       	push   $0x1a
    11db:	e9 40 fe ff ff       	jmp    1020 <_init+0x20>

Disassembly of section .plt.got:

00000000000011e0 <__cxa_finalize@plt>:
    11e0:	ff 25 fa 4d 00 00    	jmp    *0x4dfa(%rip)        # 5fe0 <__cxa_finalize@GLIBC_2.2.5>
    11e6:	66 90                	xchg   %ax,%ax

Disassembly of section .text:

00000000000011f0 <_start>:
    11f0:	31 ed                	xor    %ebp,%ebp
    11f2:	49 89 d1             	mov    %rdx,%r9
    11f5:	5e                   	pop    %rsi
    11f6:	48 89 e2             	mov    %rsp,%rdx
    11f9:	48 83 e4 f0          	and    $0xfffffffffffffff0,%rsp
    11fd:	50                   	push   %rax
    11fe:	54                   	push   %rsp
    11ff:	45 31 c0             	xor    %r8d,%r8d
    1202:	31 c9                	xor    %ecx,%ecx
    1204:	48 8d 3d ce 00 00 00 	lea    0xce(%rip),%rdi        # 12d9 <main>
    120b:	ff 15 af 4d 00 00    	call   *0x4daf(%rip)        # 5fc0 <__libc_start_main@GLIBC_2.34>
    1211:	f4                   	hlt
    1212:	66 2e 0f 1f 84 00 00 	cs nopw 0x0(%rax,%rax,1)
    1219:	00 00 00 
    121c:	0f 1f 40 00          	nopl   0x0(%rax)

0000000000001220 <deregister_tm_clones>:
    1220:	48 8d 3d 39 54 00 00 	lea    0x5439(%rip),%rdi        # 6660 <stdout@GLIBC_2.2.5>
    1227:	48 8d 05 32 54 00 00 	lea    0x5432(%rip),%rax        # 6660 <stdout@GLIBC_2.2.5>
    122e:	48 39 f8             	cmp    %rdi,%rax
    1231:	74 15                	je     1248 <deregister_tm_clones+0x28>
    1233:	48 8b 05 8e 4d 00 00 	mov    0x4d8e(%rip),%rax        # 5fc8 <_ITM_deregisterTMCloneTable@Base>
    123a:	48 85 c0             	test   %rax,%rax
    123d:	74 09                	je     1248 <deregister_tm_clones+0x28>
    123f:	ff e0                	jmp    *%rax
    1241:	0f 1f 80 00 00 00 00 	nopl   0x0(%rax)
    1248:	c3                   	ret
    1249:	0f 1f 80 00 00 00 00 	nopl   0x0(%rax)

0000000000001250 <register_tm_clones>:
    1250:	48 8d 3d 09 54 00 00 	lea    0x5409(%rip),%rdi        # 6660 <stdout@GLIBC_2.2.5>
    1257:	48 8d 35 02 54 00 00 	lea    0x5402(%rip),%rsi        # 6660 <stdout@GLIBC_2.2.5>
    125e:	48 29 fe             	sub    %rdi,%rsi
    1261:	48 89 f0             	mov    %rsi,%rax
    1264:	48 c1 ee 3f          	shr    $0x3f,%rsi
    1268:	48 c1 f8 03          	sar    $0x3,%rax
    126c:	48 01 c6             	add    %rax,%rsi
    126f:	48 d1 fe             	sar    %rsi
    1272:	74 14                	je     1288 <register_tm_clones+0x38>
    1274:	48 8b 05 5d 4d 00 00 	mov    0x4d5d(%rip),%rax        # 5fd8 <_ITM_registerTMCloneTable@Base>
    127b:	48 85 c0             	test   %rax,%rax
    127e:	74 08                	je     1288 <register_tm_clones+0x38>
    1280:	ff e0                	jmp    *%rax
    1282:	66 0f 1f 44 00 00    	nopw   0x0(%rax,%rax,1)
    1288:	c3                   	ret
    1289:	0f 1f 80 00 00 00 00 	nopl   0x0(%rax)

0000000000001290 <__do_global_dtors_aux>:
    1290:	f3 0f 1e fa          	endbr64
    1294:	80 3d ed 53 00 00 00 	cmpb   $0x0,0x53ed(%rip)        # 6688 <completed.0>
    129b:	75 2b                	jne    12c8 <__do_global_dtors_aux+0x38>
    129d:	55                   	push   %rbp
    129e:	48 83 3d 3a 4d 00 00 	cmpq   $0x0,0x4d3a(%rip)        # 5fe0 <__cxa_finalize@GLIBC_2.2.5>
    12a5:	00 
    12a6:	48 89 e5             	mov    %rsp,%rbp
    12a9:	74 0c                	je     12b7 <__do_global_dtors_aux+0x27>
    12ab:	48 8b 3d 36 4e 00 00 	mov    0x4e36(%rip),%rdi        # 60e8 <__dso_handle>
    12b2:	e8 29 ff ff ff       	call   11e0 <__cxa_finalize@plt>
    12b7:	e8 64 ff ff ff       	call   1220 <deregister_tm_clones>
    12bc:	c6 05 c5 53 00 00 01 	movb   $0x1,0x53c5(%rip)        # 6688 <completed.0>
    12c3:	5d                   	pop    %rbp
    12c4:	c3                   	ret
    12c5:	0f 1f 00             	nopl   (%rax)
    12c8:	c3                   	ret
    12c9:	0f 1f 80 00 00 00 00 	nopl   0x0(%rax)

00000000000012d0 <frame_dummy>:
    12d0:	f3 0f 1e fa          	endbr64
    12d4:	e9 77 ff ff ff       	jmp    1250 <register_tm_clones>

00000000000012d9 <main>:
    12d9:	55                   	push   %rbp
    12da:	48 89 e5             	mov    %rsp,%rbp
    12dd:	48 83 ec 20          	sub    $0x20,%rsp
    12e1:	89 7d ec             	mov    %edi,-0x14(%rbp)
    12e4:	48 89 75 e0          	mov    %rsi,-0x20(%rbp)
    12e8:	83 7d ec 01          	cmpl   $0x1,-0x14(%rbp)
    12ec:	75 13                	jne    1301 <main+0x28>
    12ee:	48 8b 05 7b 53 00 00 	mov    0x537b(%rip),%rax        # 6670 <stdin@GLIBC_2.2.5>
    12f5:	48 89 05 94 53 00 00 	mov    %rax,0x5394(%rip)        # 6690 <infile>
    12fc:	e9 91 00 00 00       	jmp    1392 <main+0xb9>
    1301:	83 7d ec 02          	cmpl   $0x2,-0x14(%rbp)
    1305:	75 63                	jne    136a <main+0x91>
    1307:	48 8b 45 e0          	mov    -0x20(%rbp),%rax
    130b:	48 83 c0 08          	add    $0x8,%rax
    130f:	48 8b 00             	mov    (%rax),%rax
    1312:	48 8d 15 ef 2c 00 00 	lea    0x2cef(%rip),%rdx        # 4008 <_IO_stdin_used+0x8>
    1319:	48 89 d6             	mov    %rdx,%rsi
    131c:	48 89 c7             	mov    %rax,%rdi
    131f:	e8 4c fe ff ff       	call   1170 <fopen@plt>
    1324:	48 89 05 65 53 00 00 	mov    %rax,0x5365(%rip)        # 6690 <infile>
    132b:	48 8b 05 5e 53 00 00 	mov    0x535e(%rip),%rax        # 6690 <infile>
    1332:	48 85 c0             	test   %rax,%rax
    1335:	75 5b                	jne    1392 <main+0xb9>
    1337:	48 8b 45 e0          	mov    -0x20(%rbp),%rax
    133b:	48 83 c0 08          	add    $0x8,%rax
    133f:	48 8b 10             	mov    (%rax),%rdx
    1342:	48 8b 45 e0          	mov    -0x20(%rbp),%rax
    1346:	48 8b 00             	mov    (%rax),%rax
    1349:	48 89 c6             	mov    %rax,%rsi
    134c:	48 8d 05 b7 2c 00 00 	lea    0x2cb7(%rip),%rax        # 400a <_IO_stdin_used+0xa>
    1353:	48 89 c7             	mov    %rax,%rdi
    1356:	b8 00 00 00 00       	mov    $0x0,%eax
    135b:	e8 40 fd ff ff       	call   10a0 <printf@plt>
    1360:	bf 08 00 00 00       	mov    $0x8,%edi
    1365:	e8 26 fe ff ff       	call   1190 <exit@plt>
    136a:	48 8b 45 e0          	mov    -0x20(%rbp),%rax
    136e:	48 8b 00             	mov    (%rax),%rax
    1371:	48 89 c6             	mov    %rax,%rsi
    1374:	48 8d 05 ac 2c 00 00 	lea    0x2cac(%rip),%rax        # 4027 <_IO_stdin_used+0x27>
    137b:	48 89 c7             	mov    %rax,%rdi
    137e:	b8 00 00 00 00       	mov    $0x0,%eax
    1383:	e8 18 fd ff ff       	call   10a0 <printf@plt>
    1388:	bf 08 00 00 00       	mov    $0x8,%edi
    138d:	e8 fe fd ff ff       	call   1190 <exit@plt>
    1392:	e8 e8 0a 00 00       	call   1e7f <initialize_bomb>
    1397:	48 8d 05 aa 2c 00 00 	lea    0x2caa(%rip),%rax        # 4048 <_IO_stdin_used+0x48>
    139e:	48 89 c7             	mov    %rax,%rdi
    13a1:	e8 ba fc ff ff       	call   1060 <puts@plt>
    13a6:	48 8d 05 db 2c 00 00 	lea    0x2cdb(%rip),%rax        # 4088 <_IO_stdin_used+0x88>
    13ad:	48 89 c7             	mov    %rax,%rdi
    13b0:	e8 ab fc ff ff       	call   1060 <puts@plt>
    13b5:	e8 9f 0b 00 00       	call   1f59 <read_line>
    13ba:	48 89 45 f8          	mov    %rax,-0x8(%rbp)
    13be:	48 8b 45 f8          	mov    -0x8(%rbp),%rax
    13c2:	48 89 c7             	mov    %rax,%rdi
    13c5:	e8 d9 00 00 00       	call   14a3 <phase_1>
    13ca:	e8 7a 0d 00 00       	call   2149 <phase_defused>
    13cf:	48 8d 05 e2 2c 00 00 	lea    0x2ce2(%rip),%rax        # 40b8 <_IO_stdin_used+0xb8>
    13d6:	48 89 c7             	mov    %rax,%rdi
    13d9:	e8 82 fc ff ff       	call   1060 <puts@plt>
    13de:	e8 76 0b 00 00       	call   1f59 <read_line>
    13e3:	48 89 45 f8          	mov    %rax,-0x8(%rbp)
    13e7:	48 8b 45 f8          	mov    -0x8(%rbp),%rax
    13eb:	48 89 c7             	mov    %rax,%rdi
    13ee:	e8 de 00 00 00       	call   14d1 <phase_2>
    13f3:	e8 51 0d 00 00       	call   2149 <phase_defused>
    13f8:	48 8d 05 e2 2c 00 00 	lea    0x2ce2(%rip),%rax        # 40e1 <_IO_stdin_used+0xe1>
    13ff:	48 89 c7             	mov    %rax,%rdi
   1402:	e8 59 fc ff ff       	call   1060 <puts@plt>
    1407:	e8 4d 0b 00 00       	call   1f59 <read_line>
    140c:	48 89 45 f8          	mov    %rax,-0x8(%rbp)
    1410:	48 8b 45 f8          	mov    -0x8(%rbp),%rax
    1414:	48 89 c7             	mov    %rax,%rdi
    1417:	e8 a8 01 00 00       	call   15c4 <phase_3>
    141c:	e8 28 0d 00 00       	call   2149 <phase_defused>
    1421:	48 8d 05 d7 2c 00 00 	lea    0x2cd7(%rip),%rax        # 40ff <_IO_stdin_used+0xff>
    1428:	48 89 c7             	mov    %rax,%rdi
    142b:	e8 30 fc ff ff       	call   1060 <puts@plt>
    1430:	e8 24 0b 00 00       	call   1f59 <read_line>
    1435:	48 89 45 f8          	mov    %rax,-0x8(%rbp)
    1439:	48 8b 45 f8          	mov    -0x8(%rbp),%rax
    143d:	48 89 c7             	mov    %rax,%rdi
    1440:	e8 dc 03 00 00       	call   1821 <phase_4>
    1445:	e8 ff 0c 00 00       	call   2149 <phase_defused>
    144a:	48 8d 05 bf 2c 00 00 	lea    0x2cbf(%rip),%rax        # 4110 <_IO_stdin_used+0x110>
    1451:	48 89 c7             	mov    %rax,%rdi
    1454:	e8 07 fc ff ff       	call   1060 <puts@plt>
    1459:	e8 fb 0a 00 00       	call   1f59 <read_line>
    145e:	48 89 45 f8          	mov    %rax,-0x8(%rbp)
    1462:	48 8b 45 f8          	mov    -0x8(%rbp),%rax
    1466:	48 89 c7             	mov    %rax,%rdi
    1469:	e8 6c 04 00 00       	call   18da <phase_5>
    146e:	e8 d6 0c 00 00       	call   2149 <phase_defused>
    1473:	48 8d 05 ba 2c 00 00 	lea    0x2cba(%rip),%rax        # 4134 <_IO_stdin_used+0x134>
    147a:	48 89 c7             	mov    %rax,%rdi
    147d:	e8 de fb ff ff       	call   1060 <puts@plt>
    1482:	e8 d2 0a 00 00       	call   1f59 <read_line>
    1487:	48 89 45 f8          	mov    %rax,-0x8(%rbp)
    148b:	48 8b 45 f8          	mov    -0x8(%rbp),%rax
    148f:	48 89 c7             	mov    %rax,%rdi
    1492:	e8 be 04 00 00       	call   1955 <phase_6>
    1497:	e8 ad 0c 00 00       	call   2149 <phase_defused>
    149c:	b8 00 00 00 00       	mov    $0x0,%eax
    14a1:	c9                   	leave
    14a2:	c3                   	ret

00000000000014a3 <phase_1>:
    14a3:	55                   	push   %rbp
    14a4:	48 89 e5             	mov    %rsp,%rbp
    14a7:	48 83 ec 10          	sub    $0x10,%rsp
    14ab:	48 89 7d f8          	mov    %rdi,-0x8(%rbp)
    14af:	48 8b 45 f8          	mov    -0x8(%rbp),%rax
    14b3:	48 8d 15 9e 2c 00 00 	lea    0x2c9e(%rip),%rdx        # 4158 <_IO_stdin_used+0x158>
    14ba:	48 89 d6             	mov    %rdx,%rsi
    14bd:	48 89 c7             	mov    %rax,%rdi
    14c0:	e8 39 09 00 00       	call   1dfe <strings_not_equal>
    14c5:	85 c0                	test   %eax,%eax
    14c7:	74 05                	je     14ce <phase_1+0x2b>
    14c9:	e8 4f 0c 00 00       	call   211d <explode_bomb>
    14ce:	90                   	nop
    14cf:	c9                   	leave
    14d0:	c3                   	ret

00000000000014d1 <phase_2>:
    14d1:	55                   	push   %rbp
    14d2:	48 89 e5             	mov    %rsp,%rbp
    14d5:	48 83 ec 30          	sub    $0x30,%rsp
    14d9:	48 89 7d d8          	mov    %rdi,-0x28(%rbp)
    14dd:	48 8d 05 a4 2c 00 00 	lea    0x2ca4(%rip),%rax        # 4188 <_IO_stdin_used+0x188>
    14e4:	48 89 45 f0          	mov    %rax,-0x10(%rbp)
    14e8:	48 8d 55 e8          	lea    -0x18(%rbp),%rdx
    14ec:	48 8b 45 d8          	mov    -0x28(%rbp),%rax
    14f0:	48 89 d6             	mov    %rdx,%rsi
    14f3:	48 89 c7             	mov    %rax,%rdi
    14f6:	e8 8c 08 00 00       	call   1d87 <read_two_numbers>
    14fb:	8b 45 e8             	mov    -0x18(%rbp),%eax
    14fe:	85 c0                	test   %eax,%eax
    1500:	79 05                	jns    1507 <phase_2+0x36>
    1502:	e8 16 0c 00 00       	call   211d <explode_bomb>
    1507:	c7 45 fc 00 00 00 00 	movl   $0x0,-0x4(%rbp)
    150e:	e9 8c 00 00 00       	jmp    159f <phase_2+0xce>
    1513:	8b 45 fc             	mov    -0x4(%rbp),%eax
    1516:	48 63 d0             	movslq %eax,%rdx
    1519:	48 8b 45 f0          	mov    -0x10(%rbp),%rax
    151d:	48 01 d0             	add    %rdx,%rax
    1520:	0f b6 00             	movzbl (%rax),%eax
    1523:	3c 60                	cmp    $0x60,%al
    1525:	7e 31                	jle    1558 <phase_2+0x87>
    1527:	8b 45 fc             	mov    -0x4(%rbp),%eax
    152a:	48 63 d0             	movslq %eax,%rdx
    152d:	48 8b 45 f0          	mov    -0x10(%rbp),%rax
    1531:	48 01 d0             	add    %rdx,%rax
    1534:	0f b6 00             	movzbl (%rax),%eax
    1537:	3c 7a                	cmp    $0x7a,%al
    1539:	7f 1d                	jg     1558 <phase_2+0x87>
    153b:	8b 55 ec             	mov    -0x14(%rbp),%edx
    153e:	8b 45 fc             	mov    -0x4(%rbp),%eax
    1541:	48 63 c8             	movslq %eax,%rcx
    1544:	48 8b 45 f0          	mov    -0x10(%rbp),%rax
    1548:	48 01 c8             	add    %rcx,%rax
    154b:	0f b6 00             	movzbl (%rax),%eax
    154e:	0f be c0             	movsbl %al,%eax
    1551:	29 c2                	sub    %eax,%edx
    1553:	89 55 ec             	mov    %edx,-0x14(%rbp)
    1556:	eb 43                	jmp    159b <phase_2+0xca>
    1558:	8b 45 fc             	mov    -0x4(%rbp),%eax
    155b:	48 63 d0             	movslq %eax,%rdx
    155e:	48 8b 45 f0          	mov    -0x10(%rbp),%rax
    1562:	48 01 d0             	add    %rdx,%rax
    1565:	0f b6 00             	movzbl (%rax),%eax
    1568:	3c 40                	cmp    $0x40,%al
    156a:	7e 2f                	jle    159b <phase_2+0xca>
    156c:	8b 45 fc             	mov    -0x4(%rbp),%eax
    156f:	48 63 d0             	movslq %eax,%rdx
    1572:	48 8b 45 f0          	mov    -0x10(%rbp),%rax
    1576:	48 01 d0             	add    %rdx,%rax
    1579:	0f b6 00             	movzbl (%rax),%eax
    157c:	3c 5a                	cmp    $0x5a,%al
    157e:	7f 1b                	jg     159b <phase_2+0xca>
    1580:	8b 55 e8             	mov    -0x18(%rbp),%edx
    1583:	8b 45 fc             	mov    -0x4(%rbp),%eax
    1586:	48 63 c8             	movslq %eax,%rcx
    1589:	48 8b 45 f0          	mov    -0x10(%rbp),%rax
    158d:	48 01 c8             	add    %rcx,%rax
    1590:	0f b6 00             	movzbl (%rax),%eax
    1593:	0f be c0             	movsbl %al,%eax
    1596:	29 c2                	sub    %eax,%edx
    1598:	89 55 e8             	mov    %edx,-0x18(%rbp)
    159b:	83 45 fc 01          	addl   $0x1,-0x4(%rbp)
    159f:	83 7d fc 09          	cmpl   $0x9,-0x4(%rbp)
    15a3:	0f 8e 6a ff ff ff    	jle    1513 <phase_2+0x42>
    15a9:	8b 45 e8             	mov    -0x18(%rbp),%eax
    15ac:	85 c0                	test   %eax,%eax
    15ae:	74 05                	je     15b5 <phase_2+0xe4>
    15b0:	e8 68 0b 00 00       	call   211d <explode_bomb>
    15b5:	8b 45 ec             	mov    -0x14(%rbp),%eax
    15b8:	85 c0                	test   %eax,%eax
    15ba:	74 05                	je     15c1 <phase_2+0xf0>
    15bc:	e8 5c 0b 00 00       	call   211d <explode_bomb>
    15c1:	90                   	nop
    15c2:	c9                   	leave
    15c3:	c3                   	ret

00000000000015c4 <phase_3>:
    15c4:	55                   	push   %rbp
    15c5:	48 89 e5             	mov    %rsp,%rbp
    15c8:	48 81 ec a0 00 00 00 	sub    $0xa0,%rsp
    15cf:	48 89 bd 68 ff ff ff 	mov    %rdi,-0x98(%rbp)
    15d6:	c7 45 d0 02 00 00 00 	movl   $0x2,-0x30(%rbp)
    15dd:	c7 45 d4 04 00 00 00 	movl   $0x4,-0x2c(%rbp)
    15e4:	c7 45 d8 06 00 00 00 	movl   $0x6,-0x28(%rbp)
    15eb:	c7 45 dc 05 00 00 00 	movl   $0x5,-0x24(%rbp)
    15f2:	c7 45 e0 08 00 00 00 	movl   $0x8,-0x20(%rbp)
    15f9:	c7 45 e4 0b 00 00 00 	movl   $0xb,-0x1c(%rbp)
    1600:	c7 45 e8 0a 00 00 00 	movl   $0xa,-0x18(%rbp)
    1607:	c7 45 ec 0d 00 00 00 	movl   $0xd,-0x14(%rbp)
    160e:	c7 45 cc 00 00 00 00 	movl   $0x0,-0x34(%rbp)
    1615:	c7 45 fc 00 00 00 00 	movl   $0x0,-0x4(%rbp)
    161c:	c7 45 f8 00 00 00 00 	movl   $0x0,-0x8(%rbp)
    1623:	48 c7 85 70 ff ff ff 	movq   $0x0,-0x90(%rbp)
    162a:	00 00 00 00 
    162e:	48 c7 85 78 ff ff ff 	movq   $0x0,-0x88(%rbp)
    1635:	00 00 00 00 
    1639:	48 c7 45 80 00 00 00 	movq   $0x0,-0x80(%rbp)
    1640:	00 
    1641:	48 c7 45 88 00 00 00 	movq   $0x0,-0x78(%rbp)
    1648:	00 
    1649:	48 c7 45 90 00 00 00 	movq   $0x0,-0x70(%rbp)
    1650:	00 
    1651:	48 c7 45 98 00 00 00 	movq   $0x0,-0x68(%rbp)
    1658:	00 
    1659:	48 c7 45 a0 00 00 00 	movq   $0x0,-0x60(%rbp)
    1660:	00 
    1661:	48 c7 45 a8 00 00 00 	movq   $0x0,-0x58(%rbp)
    1668:	00 
    1669:	48 c7 45 b0 00 00 00 	movq   $0x0,-0x50(%rbp)
    1670:	00 
    1671:	48 c7 45 b8 00 00 00 	movq   $0x0,-0x48(%rbp)
    1678:	00 
    1679:	48 8d 4d cc          	lea    -0x34(%rbp),%rcx
    167d:	48 8d 95 70 ff ff ff 	lea    -0x90(%rbp),%rdx
    1684:	48 8b 85 68 ff ff ff 	mov    -0x98(%rbp),%rax
    168b:	48 8d 35 2a 2b 00 00 	lea    0x2b2a(%rip),%rsi        # 41bc <_IO_stdin_used+0x1bc>
    1692:	48 89 c7             	mov    %rax,%rdi
    1695:	b8 00 00 00 00       	mov    $0x0,%eax
    169a:	e8 b1 fa ff ff       	call   1150 <__isoc99_sscanf@plt>
    169f:	89 45 f8             	mov    %eax,-0x8(%rbp)
    16a2:	83 7d f8 01          	cmpl   $0x1,-0x8(%rbp)
    16a6:	7f 05                	jg     16ad <phase_3+0xe9>
    16a8:	e8 70 0a 00 00       	call   211d <explode_bomb>
    16ad:	8b 45 cc             	mov    -0x34(%rbp),%eax
    16b0:	85 c0                	test   %eax,%eax
    16b2:	75 05                	jne    16b9 <phase_3+0xf5>
    16b4:	e8 64 0a 00 00       	call   211d <explode_bomb>
    16b9:	c7 45 fc 00 00 00 00 	movl   $0x0,-0x4(%rbp)
    16c0:	e9 a9 00 00 00       	jmp    176e <phase_3+0x1aa>
    16c5:	8b 45 fc             	mov    -0x4(%rbp),%eax
    16c8:	48 98                	cltq
    16ca:	0f b6 84 05 70 ff ff 	movzbl -0x90(%rbp,%rax,1),%eax
    16d1:	ff 
    16d2:	0f be c0             	movsbl %al,%eax
    16d5:	83 e8 61             	sub    $0x61,%eax
    16d8:	83 f8 07             	cmp    $0x7,%eax
    16db:	0f 87 89 00 00 00    	ja     176a <phase_3+0x1a6>
    16e1:	89 c0                	mov    %eax,%eax
    16e3:	48 8d 14 85 00 00 00 	lea    0x0(,%rax,4),%rdx
    16ea:	00 
    16eb:	48 8d 05 d2 2a 00 00 	lea    0x2ad2(%rip),%rax        # 41c4 <_IO_stdin_used+0x1c4>
    16f2:	8b 04 02             	mov    (%rdx,%rax,1),%eax
    16f5:	48 98                	cltq
    16f7:	48 8d 15 c6 2a 00 00 	lea    0x2ac6(%rip),%rdx        # 41c4 <_IO_stdin_used+0x1c4>
    16fe:	48 01 d0             	add    %rdx,%rax
    1701:	ff e0                	jmp    *%rax
    1703:	8b 55 cc             	mov    -0x34(%rbp),%edx
    1706:	8b 45 d0             	mov    -0x30(%rbp),%eax
    1709:	29 c2                	sub    %eax,%edx
    170b:	89 55 cc             	mov    %edx,-0x34(%rbp)
    170e:	eb 5a                	jmp    176a <phase_3+0x1a6>
    1710:	8b 55 cc             	mov    -0x34(%rbp),%edx
    1713:	8b 45 d4             	mov    -0x2c(%rbp),%eax
    1716:	29 c2                	sub    %eax,%edx
    1718:	89 55 cc             	mov    %edx,-0x34(%rbp)
    171b:	eb 4d                	jmp    176a <phase_3+0x1a6>
    171d:	8b 55 cc             	mov    -0x34(%rbp),%edx
    1720:	8b 45 d8             	mov    -0x28(%rbp),%eax
    1723:	29 c2                	sub    %eax,%edx
    1725:	89 55 cc             	mov    %edx,-0x34(%rbp)
    1728:	eb 40                	jmp    176a <phase_3+0x1a6>
    172a:	8b 55 cc             	mov    -0x34(%rbp),%edx
    172d:	8b 45 dc             	mov    -0x24(%rbp),%eax
    1730:	29 c2                	sub    %eax,%edx
    1732:	89 55 cc             	mov    %edx,-0x34(%rbp)
    1735:	eb 33                	jmp    176a <phase_3+0x1a6>
    1737:	8b 55 cc             	mov    -0x34(%rbp),%edx
    173a:	8b 45 e0             	mov    -0x20(%rbp),%eax
    173d:	29 c2                	sub    %eax,%edx
    173f:	89 55 cc             	mov    %edx,-0x34(%rbp)
    1742:	eb 26                	jmp    176a <phase_3+0x1a6>
    1744:	8b 55 cc             	mov    -0x34(%rbp),%edx
    1747:	8b 45 e4             	mov    -0x1c(%rbp),%eax
    174a:	29 c2                	sub    %eax,%edx
    174c:	89 55 cc             	mov    %edx,-0x34(%rbp)
    174f:	eb 19                	jmp    176a <phase_3+0x1a6>
    1751:	8b 55 cc             	mov    -0x34(%rbp),%edx
    1754:	8b 45 e8             	mov    -0x18(%rbp),%eax
    1757:	29 c2                	sub    %eax,%edx
    1759:	89 55 cc             	mov    %edx,-0x34(%rbp)
    175c:	eb 0c                	jmp    176a <phase_3+0x1a6>
    175e:	8b 55 cc             	mov    -0x34(%rbp),%edx
    1761:	8b 45 ec             	mov    -0x14(%rbp),%eax
    1764:	29 c2                	sub    %eax,%edx
    1766:	89 55 cc             	mov    %edx,-0x34(%rbp)
    1769:	90                   	nop
    176a:	83 45 fc 01          	addl   $0x1,-0x4(%rbp)
    176e:	48 8d 85 70 ff ff ff 	lea    -0x90(%rbp),%rax
    1775:	48 89 c7             	mov    %rax,%rdi
    1778:	e8 4f 06 00 00       	call   1dcc <string_length>
    177d:	39 45 fc             	cmp    %eax,-0x4(%rbp)
    1780:	0f 8c 3f ff ff ff    	jl     16c5 <phase_3+0x101>
    1786:	8b 45 cc             	mov    -0x34(%rbp),%eax
    1789:	85 c0                	test   %eax,%eax
    178b:	74 05                	je     1792 <phase_3+0x1ce>
    178d:	e8 8b 09 00 00       	call   211d <explode_bomb>
    1792:	90                   	nop
    1793:	c9                   	leave
    1794:	c3                   	ret

0000000000001795 <func4>:
    1795:	55                   	push   %rbp
    1796:	48 89 e5             	mov    %rsp,%rbp
    1799:	89 7d ec             	mov    %edi,-0x14(%rbp)
    179c:	48 89 75 e0          	mov    %rsi,-0x20(%rbp)
    17a0:	8b 45 ec             	mov    -0x14(%rbp),%eax
    17a3:	48 63 d0             	movslq %eax,%rdx
    17a6:	48 8b 45 e0          	mov    -0x20(%rbp),%rax
    17aa:	48 01 d0             	add    %rdx,%rax
    17ad:	0f b6 00             	movzbl (%rax),%eax
    17b0:	89 c1                	mov    %eax,%ecx
    17b2:	8b 45 ec             	mov    -0x14(%rbp),%eax
    17b5:	8d 50 04             	lea    0x4(%rax),%edx
    17b8:	89 d0                	mov    %edx,%eax
    17ba:	c1 f8 1f             	sar    $0x1f,%eax
    17bd:	c1 e8 1d             	shr    $0x1d,%eax
    17c0:	01 c2                	add    %eax,%edx
    17c2:	83 e2 07             	and    $0x7,%edx
    17c5:	29 c2                	sub    %eax,%edx
    17c7:	89 d0                	mov    %edx,%eax
    17c9:	48 63 d0             	movslq %eax,%rdx
    17cc:	48 8b 45 e0          	mov    -0x20(%rbp),%rax
    17d0:	48 01 d0             	add    %rdx,%rax
    17d3:	0f b6 00             	movzbl (%rax),%eax
    17d6:	01 c8                	add    %ecx,%eax
    17d8:	88 45 fb             	mov    %al,-0x5(%rbp)
    17db:	c7 45 fc 00 00 00 00 	movl   $0x0,-0x4(%rbp)
    17e2:	eb 27                	jmp    180b <func4+0x76>
    17e4:	8b 45 fc             	mov    -0x4(%rbp),%eax
    17e7:	48 63 d0             	movslq %eax,%rdx
    17ea:	48 8b 45 e0          	mov    -0x20(%rbp),%rax
    17ee:	48 01 d0             	add    %rdx,%rax
    17f1:	8b 55 fc             	mov    -0x4(%rbp),%edx
    17f4:	48 63 d2             	movslq %edx,%rdx
    17f7:	48 8d 4a 01          	lea    0x1(%rdx),%rcx
    17fb:	48 8b 55 e0          	mov    -0x20(%rbp),%rdx
    17ff:	48 01 ca             	add    %rcx,%rdx
    1802:	0f b6 00             	movzbl (%rax),%eax
    1805:	88 02                	mov    %al,(%rdx)
    1807:	83 45 fc 01          	addl   $0x1,-0x4(%rbp)
    180b:	83 7d fc 06          	cmpl   $0x6,-0x4(%rbp)
    180f:	7e d3                	jle    17e4 <func4+0x4f>
    1811:	48 8b 45 e0          	mov    -0x20(%rbp),%rax
    1815:	0f b6 55 fb          	movzbl -0x5(%rbp),%edx
    1819:	88 10                	mov    %dl,(%rax)
    181b:	0f be 45 fb          	movsbl -0x5(%rbp),%eax
    181f:	5d                   	pop    %rbp
    1820:	c3                   	ret

0000000000001821 <phase_4>:
    1821:	55                   	push   %rbp
    1822:	48 89 e5             	mov    %rsp,%rbp
    1825:	53                   	push   %rbx
    1826:	48 83 ec 38          	sub    $0x38,%rsp
    182a:	48 89 7d c8          	mov    %rdi,-0x38(%rbp)
    182e:	48 b8 0a 14 1e 28 32 	movabs $0x50463c32281e140a,%rax
    1835:	3c 46 50 
    1838:	48 89 45 dc          	mov    %rax,-0x24(%rbp)
    183c:	c7 45 d8 00 00 00 00 	movl   $0x0,-0x28(%rbp)
    1843:	c7 45 e8 06 00 00 00 	movl   $0x6,-0x18(%rbp)
    184a:	48 8d 4d d8          	lea    -0x28(%rbp),%rcx
    184e:	48 83 c1 03          	add    $0x3,%rcx
    1852:	48 8d 55 d8          	lea    -0x28(%rbp),%rdx
    1856:	48 83 c2 02          	add    $0x2,%rdx
    185a:	48 8d 45 d8          	lea    -0x28(%rbp),%rax
    185e:	48 83 c0 01          	add    $0x1,%rax
    1862:	48 8d 75 d8          	lea    -0x28(%rbp),%rsi
    1866:	48 8b 7d c8          	mov    -0x38(%rbp),%rdi
    186a:	49 89 c9             	mov    %rcx,%r9
    186d:	49 89 d0             	mov    %rdx,%r8
    1870:	48 89 c1             	mov    %rax,%rcx
    1873:	48 89 f2             	mov    %rsi,%rdx
    1876:	48 8d 05 67 29 00 00 	lea    0x2967(%rip),%rax        # 41e4 <_IO_stdin_used+0x1e4>
    187d:	48 89 c6             	mov    %rax,%rsi
    1880:	b8 00 00 00 00       	mov    $0x0,%eax
    1885:	e8 c6 f8 ff ff       	call   1150 <__isoc99_sscanf@plt>
    188a:	89 45 e4             	mov    %eax,-0x1c(%rbp)
    188d:	83 7d e4 04          	cmpl   $0x4,-0x1c(%rbp)
    1891:	74 05                	je     1898 <phase_4+0x77>
    1893:	e8 85 08 00 00       	call   211d <explode_bomb>
    1898:	c7 45 ec 00 00 00 00 	movl   $0x0,-0x14(%rbp)
    189f:	eb 2b                	jmp    18cc <phase_4+0xab>
    18a1:	8b 45 ec             	mov    -0x14(%rbp),%eax
    18a4:	48 98                	cltq
    18a6:	0f b6 44 05 d8       	movzbl -0x28(%rbp,%rax,1),%eax
    18ab:	0f be d8             	movsbl %al,%ebx
    18ae:	48 8d 55 dc          	lea    -0x24(%rbp),%rdx
    18b2:	8b 45 e8             	mov    -0x18(%rbp),%eax
    18b5:	48 89 d6             	mov    %rdx,%rsi
    18b8:	89 c7                	mov    %eax,%edi
    18ba:	e8 d6 fe ff ff       	call   1795 <func4>
    18bf:	39 c3                	cmp    %eax,%ebx
    18c1:	74 05                	je     18c8 <phase_4+0xa7>
    18c3:	e8 55 08 00 00       	call   211d <explode_bomb>
    18c8:	83 45 ec 01          	addl   $0x1,-0x14(%rbp)
    18cc:	83 7d ec 03          	cmpl   $0x3,-0x14(%rbp)
    18d0:	7e cf                	jle    18a1 <phase_4+0x80>
    18d2:	90                   	nop
    18d3:	90                   	nop
    18d4:	48 8b 5d f8          	mov    -0x8(%rbp),%rbx
    18d8:	c9                   	leave
    18d9:	c3                   	ret

00000000000018da <phase_5>:
    18da:	55                   	push   %rbp
    18db:	48 89 e5             	mov    %rsp,%rbp
    18de:	48 83 ec 20          	sub    $0x20,%rsp
    18e2:	48 89 7d e8          	mov    %rdi,-0x18(%rbp)
    18e6:	48 8b 45 e8          	mov    -0x18(%rbp),%rax
    18ea:	48 89 c7             	mov    %rax,%rdi
    18ed:	e8 da 04 00 00       	call   1dcc <string_length>
    18f2:	89 45 f4             	mov    %eax,-0xc(%rbp)
    18f5:	83 7d f4 06          	cmpl   $0x6,-0xc(%rbp)
    18f9:	74 05                	je     1900 <phase_5+0x26>
    18fb:	e8 1d 08 00 00       	call   211d <explode_bomb>
    1900:	c7 45 f8 00 00 00 00 	movl   $0x0,-0x8(%rbp)
    1907:	c7 45 fc 00 00 00 00 	movl   $0x0,-0x4(%rbp)
    190e:	eb 31                	jmp    1941 <phase_5+0x67>
    1910:	8b 45 fc             	mov    -0x4(%rbp),%eax
    1913:	48 63 d0             	movslq %eax,%rdx
    1916:	48 8b 45 e8          	mov    -0x18(%rbp),%rax
    191a:	48 01 d0             	add    %rdx,%rax
    191d:	0f b6 00             	movzbl (%rax),%eax
    1920:	0f be c0             	movsbl %al,%eax
    1923:	83 e0 0f             	and    $0xf,%eax
    1926:	48 98                	cltq
    1928:	48 8d 14 85 00 00 00 	lea    0x0(,%rax,4),%rdx
    192f:	00 
    1930:	48 8d 05 89 48 00 00 	lea    0x4889(%rip),%rax        # 61c0 <array.0>
    1937:	8b 04 02             	mov    (%rdx,%rax,1),%eax
    193a:	01 45 f8             	add    %eax,-0x8(%rbp)
    193d:	83 45 fc 01          	addl   $0x1,-0x4(%rbp)
    1941:	83 7d fc 05          	cmpl   $0x5,-0x4(%rbp)
    1945:	7e c9                	jle    1910 <phase_5+0x36>
    1947:	83 7d f8 24          	cmpl   $0x24,-0x8(%rbp)
    194b:	74 05                	je     1952 <phase_5+0x78>
    194d:	e8 cb 07 00 00       	call   211d <explode_bomb>
    1952:	90                   	nop
    1953:	c9                   	leave
    1954:	c3                   	ret

0000000000001955 <phase_6>:
    1955:	55                   	push   %rbp
    1956:	48 89 e5             	mov    %rsp,%rbp
    1959:	48 83 ec 70          	sub    $0x70,%rsp
    195d:	48 89 7d 98          	mov    %rdi,-0x68(%rbp)
    1961:	48 8d 05 d8 48 00 00 	lea    0x48d8(%rip),%rax        # 6240 <node1>
    1968:	48 89 45 e8          	mov    %rax,-0x18(%rbp)
    196c:	48 8d 55 d0          	lea    -0x30(%rbp),%rdx
    1970:	48 8b 45 98          	mov    -0x68(%rbp),%rax
    1974:	48 89 d6             	mov    %rdx,%rsi
    1977:	48 89 c7             	mov    %rax,%rdi
    197a:	e8 9d 03 00 00       	call   1d1c <read_six_numbers>
    197f:	c7 45 f4 00 00 00 00 	movl   $0x0,-0xc(%rbp)
    1986:	eb 54                	jmp    19dc <phase_6+0x87>
    1988:	8b 45 f4             	mov    -0xc(%rbp),%eax
    198b:	48 98                	cltq
    198d:	8b 44 85 d0          	mov    -0x30(%rbp,%rax,4),%eax
    1991:	85 c0                	test   %eax,%eax
    1993:	7e 0e                	jle    19a3 <phase_6+0x4e>
    1995:	8b 45 f4             	mov    -0xc(%rbp),%eax
    1998:	48 98                	cltq
    199a:	8b 44 85 d0          	mov    -0x30(%rbp,%rax,4),%eax
    199e:	83 f8 06             	cmp    $0x6,%eax
    19a1:	7e 05                	jle    19a8 <phase_6+0x53>
    19a3:	e8 75 07 00 00       	call   211d <explode_bomb>
    19a8:	8b 45 f4             	mov    -0xc(%rbp),%eax
    19ab:	83 c0 01             	add    $0x1,%eax
    19ae:	89 45 f0             	mov    %eax,-0x10(%rbp)
    19b1:	eb 1f                	jmp    19d2 <phase_6+0x7d>
    19b3:	8b 45 f4             	mov    -0xc(%rbp),%eax
    19b6:	48 98                	cltq
    19b8:	8b 54 85 d0          	mov    -0x30(%rbp,%rax,4),%edx
    19bc:	8b 45 f0             	mov    -0x10(%rbp),%eax
    19bf:	48 98                	cltq
    19c1:	8b 44 85 d0          	mov    -0x30(%rbp,%rax,4),%eax
    19c5:	39 c2                	cmp    %eax,%edx
    19c7:	75 05                	jne    19ce <phase_6+0x79>
    19c9:	e8 4f 07 00 00       	call   211d <explode_bomb>
    19ce:	83 45 f0 01          	addl   $0x1,-0x10(%rbp)
    19d2:	83 7d f0 05          	cmpl   $0x5,-0x10(%rbp)
    19d6:	7e db                	jle    19b3 <phase_6+0x5e>
    19d8:	83 45 f4 01          	addl   $0x1,-0xc(%rbp)
    19dc:	83 7d f4 05          	cmpl   $0x5,-0xc(%rbp)
    19e0:	7e a6                	jle    1988 <phase_6+0x33>
    19e2:	c7 45 f4 00 00 00 00 	movl   $0x0,-0xc(%rbp)
    19e9:	eb 41                	jmp    1a2c <phase_6+0xd7>
    19eb:	48 8b 45 e8          	mov    -0x18(%rbp),%rax
    19ef:	48 89 45 f8          	mov    %rax,-0x8(%rbp)
    19f3:	c7 45 f0 01 00 00 00 	movl   $0x1,-0x10(%rbp)
    19fa:	eb 10                	jmp    1a0c <phase_6+0xb7>
    19fc:	48 8b 45 f8          	mov    -0x8(%rbp),%rax
    1a00:	48 8b 40 08          	mov    0x8(%rax),%rax
    1a04:	48 89 45 f8          	mov    %rax,-0x8(%rbp)
    1a08:	83 45 f0 01          	addl   $0x1,-0x10(%rbp)
    1a0c:	8b 45 f4             	mov    -0xc(%rbp),%eax
    1a0f:	48 98                	cltq
    1a11:	8b 44 85 d0          	mov    -0x30(%rbp,%rax,4),%eax
    1a15:	39 45 f0             	cmp    %eax,-0x10(%rbp)
    1a18:	7c e2                	jl     19fc <phase_6+0xa7>
    1a1a:	8b 45 f4             	mov    -0xc(%rbp),%eax
    1a1d:	48 98                	cltq
    1a1f:	48 8b 55 f8          	mov    -0x8(%rbp),%rdx
    1a23:	48 89 54 c5 a0       	mov    %rdx,-0x60(%rbp,%rax,8)
    1a28:	83 45 f4 01          	addl   $0x1,-0xc(%rbp)
    1a2c:	83 7d f4 05          	cmpl   $0x5,-0xc(%rbp)
    1a30:	7e b9                	jle    19eb <phase_6+0x96>
    1a32:	48 8b 45 a0          	mov    -0x60(%rbp),%rax
    1a36:	48 89 45 e8          	mov    %rax,-0x18(%rbp)
    1a3a:	48 8b 45 e8          	mov    -0x18(%rbp),%rax
    1a3e:	48 89 45 f8          	mov    %rax,-0x8(%rbp)
    1a42:	c7 45 f4 01 00 00 00 	movl   $0x1,-0xc(%rbp)
    1a49:	eb 22                	jmp    1a6d <phase_6+0x118>
    1a4b:	8b 45 f4             	mov    -0xc(%rbp),%eax
    1a4e:	48 98                	cltq
    1a50:	48 8b 54 c5 a0       	mov    -0x60(%rbp,%rax,8),%rdx
    1a55:	48 8b 45 f8          	mov    -0x8(%rbp),%rax
    1a59:	48 89 50 08          	mov    %rdx,0x8(%rax)
    1a5d:	48 8b 45 f8          	mov    -0x8(%rbp),%rax
    1a61:	48 8b 40 08          	mov    0x8(%rax),%rax
    1a65:	48 89 45 f8          	mov    %rax,-0x8(%rbp)
    1a69:	83 45 f4 01          	addl   $0x1,-0xc(%rbp)
    1a6d:	83 7d f4 05          	cmpl   $0x5,-0xc(%rbp)
    1a71:	7e d8                	jle    1a4b <phase_6+0xf6>
    1a73:	48 8b 45 f8          	mov    -0x8(%rbp),%rax
    1a77:	48 c7 40 08 00 00 00 	movq   $0x0,0x8(%rax)
    1a7e:	00 
    1a7f:	48 8b 45 e8          	mov    -0x18(%rbp),%rax
    1a83:	48 89 45 f8          	mov    %rax,-0x8(%rbp)
    1a87:	c7 45 f4 00 00 00 00 	movl   $0x0,-0xc(%rbp)
    1a8e:	eb 29                	jmp    1ab9 <phase_6+0x164>
    1a90:	48 8b 45 f8          	mov    -0x8(%rbp),%rax
    1a94:	8b 10                	mov    (%rax),%edx
    1a96:	48 8b 45 f8          	mov    -0x8(%rbp),%rax
    1a9a:	48 8b 40 08          	mov    0x8(%rax),%rax
    1a9e:	8b 00                	mov    (%rax),%eax
    1aa0:	39 c2                	cmp    %eax,%edx
    1aa2:	7d 05                	jge    1aa9 <phase_6+0x154>
    1aa4:	e8 74 06 00 00       	call   211d <explode_bomb>
    1aa9:	48 8b 45 f8          	mov    -0x8(%rbp),%rax
    1aad:	48 8b 40 08          	mov    0x8(%rax),%rax
    1ab1:	48 89 45 f8          	mov    %rax,-0x8(%rbp)
    1ab5:	83 45 f4 01          	addl   $0x1,-0xc(%rbp)
    1ab9:	83 7d f4 04          	cmpl   $0x4,-0xc(%rbp)
    1abd:	7e d1                	jle    1a90 <phase_6+0x13b>
    1abf:	90                   	nop
    1ac0:	90                   	nop
    1ac1:	c9                   	leave
    1ac2:	c3                   	ret

0000000000001ac3 <cityName2index>:
    1ac3:	55                   	push   %rbp
    1ac4:	48 89 e5             	mov    %rsp,%rbp
    1ac7:	48 83 ec 20          	sub    $0x20,%rsp
    1acb:	48 89 7d e8          	mov    %rdi,-0x18(%rbp)
    1acf:	c7 45 fc 00 00 00 00 	movl   $0x0,-0x4(%rbp)
    1ad6:	eb 34                	jmp    1b0c <cityName2index+0x49>
    1ad8:	8b 45 fc             	mov    -0x4(%rbp),%eax
    1adb:	48 98                	cltq
    1add:	48 8d 14 85 00 00 00 	lea    0x0(,%rax,4),%rdx
    1ae4:	00 
    1ae5:	48 8d 05 a4 46 00 00 	lea    0x46a4(%rip),%rax        # 6190 <cityNames>
    1aec:	48 01 c2             	add    %rax,%rdx
    1aef:	48 8b 45 e8          	mov    -0x18(%rbp),%rax
    1af3:	48 89 d6             	mov    %rdx,%rsi
    1af6:	48 89 c7             	mov    %rax,%rdi
    1af9:	e8 00 03 00 00       	call   1dfe <strings_not_equal>
    1afe:	85 c0                	test   %eax,%eax
    1b00:	75 05                	jne    1b07 <cityName2index+0x44>
    1b02:	8b 45 fc             	mov    -0x4(%rbp),%eax
    1b05:	eb 15                	jmp    1b1c <cityName2index+0x59>
    1b07:	90                   	nop
    1b08:	83 45 fc 01          	addl   $0x1,-0x4(%rbp)
    1b0c:	83 7d fc 04          	cmpl   $0x4,-0x4(%rbp)
    1b10:	7e c6                	jle    1ad8 <cityName2index+0x15>
    1b12:	e8 06 06 00 00       	call   211d <explode_bomb>
    1b17:	b8 00 00 00 00       	mov    $0x0,%eax
    1b1c:	c9                   	leave
    1b1d:	c3                   	ret

0000000000001b1e <secret_phase>:
    1b1e:	55                   	push   %rbp
    1b1f:	48 89 e5             	mov    %rsp,%rbp
    1b22:	48 81 ec 20 06 00 00 	sub    $0x620,%rsp
    1b29:	e8 2b 04 00 00       	call   1f59 <read_line>
    1b2e:	48 89 45 f0          	mov    %rax,-0x10(%rbp)
    1b32:	48 8d 85 e0 f9 ff ff 	lea    -0x620(%rbp),%rax
    1b39:	4c 8d 80 00 03 00 00 	lea    0x300(%rax),%r8
    1b40:	48 8d 85 e0 f9 ff ff 	lea    -0x620(%rbp),%rax
    1b47:	48 8d b8 00 02 00 00 	lea    0x200(%rax),%rdi
    1b4e:	48 8d 85 e0 f9 ff ff 	lea    -0x620(%rbp),%rax
    1b55:	48 8d 88 00 01 00 00 	lea    0x100(%rax),%rcx
    1b5c:	48 8d 95 e0 f9 ff ff 	lea    -0x620(%rbp),%rdx
    1b63:	48 8b 45 f0          	mov    -0x10(%rbp),%rax
    1b67:	48 8d b5 e0 f9 ff ff 	lea    -0x620(%rbp),%rsi
    1b6e:	48 81 c6 00 05 00 00 	add    $0x500,%rsi
    1b75:	56                   	push   %rsi
    1b76:	48 8d b5 e0 f9 ff ff 	lea    -0x620(%rbp),%rsi
    1b7d:	48 81 c6 00 04 00 00 	add    $0x400,%rsi
    1b84:	56                   	push   %rsi
    1b85:	4d 89 c1             	mov    %r8,%r9
    1b88:	49 89 f8             	mov    %rdi,%r8
    1b8b:	48 8d 35 66 26 00 00 	lea    0x2666(%rip),%rsi        # 41f8 <_IO_stdin_used+0x1f8>
    1b92:	48 89 c7             	mov    %rax,%rdi
    1b95:	b8 00 00 00 00       	mov    $0x0,%eax
    1b9a:	e8 b1 f5 ff ff       	call   1150 <__isoc99_sscanf@plt>
    1b9f:	48 83 c4 10          	add    $0x10,%rsp
    1ba3:	89 45 ec             	mov    %eax,-0x14(%rbp)
    1ba6:	83 7d ec 05          	cmpl   $0x5,-0x14(%rbp)
    1baa:	7f 05                	jg     1bb1 <secret_phase+0x93>
    1bac:	e8 6c 05 00 00       	call   211d <explode_bomb>
    1bb1:	c7 45 fc 00 00 00 00 	movl   $0x0,-0x4(%rbp)
    1bb8:	48 8d 85 e0 f9 ff ff 	lea    -0x620(%rbp),%rax
    1bbf:	48 89 c7             	mov    %rax,%rdi
    1bc2:	e8 fc fe ff ff       	call   1ac3 <cityName2index>
    1bc7:	89 45 e8             	mov    %eax,-0x18(%rbp)
    1bca:	c7 45 f8 01 00 00 00 	movl   $0x1,-0x8(%rbp)
    1bd1:	eb 7d                	jmp    1c50 <secret_phase+0x132>
    1bd3:	48 8d 85 e0 f9 ff ff 	lea    -0x620(%rbp),%rax
    1bda:	8b 55 f8             	mov    -0x8(%rbp),%edx
    1bdd:	48 63 d2             	movslq %edx,%rdx
    1be0:	48 c1 e2 08          	shl    $0x8,%rdx
    1be4:	48 01 d0             	add    %rdx,%rax
    1be7:	48 89 c7             	mov    %rax,%rdi
    1bea:	e8 d4 fe ff ff       	call   1ac3 <cityName2index>
    1bef:	89 45 e4             	mov    %eax,-0x1c(%rbp)
    1bf2:	8b 45 e8             	mov    -0x18(%rbp),%eax
    1bf5:	3b 45 e4             	cmp    -0x1c(%rbp),%eax
    1bf8:	73 2a                	jae    1c24 <secret_phase+0x106>
    1bfa:	8b 4d e4             	mov    -0x1c(%rbp),%ecx
    1bfd:	8b 55 e8             	mov    -0x18(%rbp),%edx
    1c00:	48 89 d0             	mov    %rdx,%rax
    1c03:	48 c1 e0 02          	shl    $0x2,%rax
    1c07:	48 01 d0             	add    %rdx,%rax
    1c0a:	48 01 c8             	add    %rcx,%rax
    1c0d:	48 8d 14 85 00 00 00 	lea    0x0(,%rax,4),%rdx
    1c14:	00 
    1c15:	48 8d 05 04 45 00 00 	lea    0x4504(%rip),%rax        # 6120 <distances>
    1c1c:	8b 04 02             	mov    (%rdx,%rax,1),%eax
    1c1f:	01 45 fc             	add    %eax,-0x4(%rbp)
    1c22:	eb 28                	jmp    1c4c <secret_phase+0x12e>
    1c24:	8b 4d e8             	mov    -0x18(%rbp),%ecx
    1c27:	8b 55 e4             	mov    -0x1c(%rbp),%edx
    1c2a:	48 89 d0             	mov    %rdx,%rax
    1c2d:	48 c1 e0 02          	shl    $0x2,%rax
    1c31:	48 01 d0             	add    %rdx,%rax
    1c34:	48 01 c8             	add    %rcx,%rax
    1c37:	48 8d 14 85 00 00 00 	lea    0x0(,%rax,4),%rdx
    1c3e:	00 
    1c3f:	48 8d 05 da 44 00 00 	lea    0x44da(%rip),%rax        # 6120 <distances>
    1c46:	8b 04 02             	mov    (%rdx,%rax,1),%eax
    1c49:	01 45 fc             	add    %eax,-0x4(%rbp)
    1c4c:	83 45 f8 01          	addl   $0x1,-0x8(%rbp)
    1c50:	83 7d f8 04          	cmpl   $0x4,-0x8(%rbp)
    1c54:	0f 8e 79 ff ff ff    	jle    1bd3 <secret_phase+0xb5>
    1c5a:	8b 05 44 45 00 00    	mov    0x4544(%rip),%eax        # 61a4 <minDistance>
    1c60:	39 45 fc             	cmp    %eax,-0x4(%rbp)
    1c63:	7e 05                	jle    1c6a <secret_phase+0x14c>
    1c65:	e8 b3 04 00 00       	call   211d <explode_bomb>
    1c6a:	48 8d 05 9f 25 00 00 	lea    0x259f(%rip),%rax        # 4210 <_IO_stdin_used+0x210>
    1c71:	48 89 c7             	mov    %rax,%rdi
    1c74:	e8 e7 f3 ff ff       	call   1060 <puts@plt>
    1c79:	e8 cb 04 00 00       	call   2149 <phase_defused>
    1c7e:	90                   	nop
    1c7f:	c9                   	leave
    1c80:	c3                   	ret

0000000000001c81 <sig_handler>:
    1c81:	55                   	push   %rbp
    1c82:	48 89 e5             	mov    %rsp,%rbp
    1c85:	48 83 ec 10          	sub    $0x10,%rsp
    1c89:	89 7d fc             	mov    %edi,-0x4(%rbp)
    1c8c:	48 8d 05 05 26 00 00 	lea    0x2605(%rip),%rax        # 4298 <_IO_stdin_used+0x298>
    1c93:	48 89 c7             	mov    %rax,%rdi
    1c96:	e8 c5 f3 ff ff       	call   1060 <puts@plt>
    1c9b:	bf 03 00 00 00       	mov    $0x3,%edi
    1ca0:	e8 0b f5 ff ff       	call   11b0 <sleep@plt>
    1ca5:	48 8d 05 24 26 00 00 	lea    0x2624(%rip),%rax        # 42d0 <_IO_stdin_used+0x2d0>
    1cac:	48 89 c7             	mov    %rax,%rdi
    1caf:	b8 00 00 00 00       	mov    $0x0,%eax
    1cb4:	e8 e7 f3 ff ff       	call   10a0 <printf@plt>
    1cb9:	48 8b 05 a0 49 00 00 	mov    0x49a0(%rip),%rax        # 6660 <stdout@GLIBC_2.2.5>
    1cc0:	48 89 c7             	mov    %rax,%rdi
    1cc3:	e8 78 f4 ff ff       	call   1140 <fflush@plt>
    1cc8:	bf 01 00 00 00       	mov    $0x1,%edi
    1ccd:	e8 de f4 ff ff       	call   11b0 <sleep@plt>
    1cd2:	48 8d 05 ff 25 00 00 	lea    0x25ff(%rip),%rax        # 42d8 <_IO_stdin_used+0x2d8>
    1cd9:	48 89 c7             	mov    %rax,%rdi
    1cdc:	e8 7f f3 ff ff       	call   1060 <puts@plt>
    1ce1:	bf 10 00 00 00       	mov    $0x10,%edi
    1ce6:	e8 a5 f4 ff ff       	call   1190 <exit@plt>

0000000000001ceb <invalid_phase>:
    1ceb:	55                   	push   %rbp
    1cec:	48 89 e5             	mov    %rsp,%rbp
    1cef:	48 83 ec 10          	sub    $0x10,%rsp
    1cf3:	48 89 7d f8          	mov    %rdi,-0x8(%rbp)
    1cf7:	48 8b 45 f8          	mov    -0x8(%rbp),%rax
    1cfb:	48 89 c6             	mov    %rax,%rsi
    1cfe:	48 8d 05 db 25 00 00 	lea    0x25db(%rip),%rax        # 42e0 <_IO_stdin_used+0x2e0>
    1d05:	48 89 c7             	mov    %rax,%rdi
    1d08:	b8 00 00 00 00       	mov    $0x0,%eax
    1d0d:	e8 8e f3 ff ff       	call   10a0 <printf@plt>
    1d12:	bf 08 00 00 00       	mov    $0x8,%edi
    1d17:	e8 74 f4 ff ff       	call   1190 <exit@plt>

0000000000001d1c <read_six_numbers>:
    1d1c:	55                   	push   %rbp
    1d1d:	48 89 e5             	mov    %rsp,%rbp
    1d20:	48 83 ec 20          	sub    $0x20,%rsp
    1d24:	48 89 7d e8          	mov    %rdi,-0x18(%rbp)
    1d28:	48 89 75 e0          	mov    %rsi,-0x20(%rbp)
    1d2c:	48 8b 45 e0          	mov    -0x20(%rbp),%rax
    1d30:	48 8d 78 14          	lea    0x14(%rax),%rdi
    1d34:	48 8b 45 e0          	mov    -0x20(%rbp),%rax
    1d38:	48 8d 70 10          	lea    0x10(%rax),%rsi
    1d3c:	48 8b 45 e0          	mov    -0x20(%rbp),%rax
    1d40:	4c 8d 48 0c          	lea    0xc(%rax),%r9
    1d44:	48 8b 45 e0          	mov    -0x20(%rbp),%rax
    1d48:	4c 8d 40 08          	lea    0x8(%rax),%r8
    1d4c:	48 8b 45 e0          	mov    -0x20(%rbp),%rax
    1d50:	48 8d 48 04          	lea    0x4(%rax),%rcx
    1d54:	48 8b 55 e0          	mov    -0x20(%rbp),%rdx
    1d58:	48 8b 45 e8          	mov    -0x18(%rbp),%rax
    1d5c:	57                   	push   %rdi
    1d5d:	56                   	push   %rsi
    1d5e:	48 8d 35 8c 25 00 00 	lea    0x258c(%rip),%rsi        # 42f1 <_IO_stdin_used+0x2f1>
    1d65:	48 89 c7             	mov    %rax,%rdi
    1d68:	b8 00 00 00 00       	mov    $0x0,%eax
    1d6d:	e8 de f3 ff ff       	call   1150 <__isoc99_sscanf@plt>
    1d72:	48 83 c4 10          	add    $0x10,%rsp
    1d76:	89 45 fc             	mov    %eax,-0x4(%rbp)
    1d79:	83 7d fc 05          	cmpl   $0x5,-0x4(%rbp)
    1d7d:	7f 05                	jg     1d84 <read_six_numbers+0x68>
    1d7f:	e8 99 03 00 00       	call   211d <explode_bomb>
    1d84:	90                   	nop
    1d85:	c9                   	leave
    1d86:	c3                   	ret

0000000000001d87 <read_two_numbers>:
    1d87:	55                   	push   %rbp
    1d88:	48 89 e5             	mov    %rsp,%rbp
    1d8b:	48 83 ec 20          	sub    $0x20,%rsp
    1d8f:	48 89 7d e8          	mov    %rdi,-0x18(%rbp)
    1d93:	48 89 75 e0          	mov    %rsi,-0x20(%rbp)
    1d97:	48 8b 45 e0          	mov    -0x20(%rbp),%rax
    1d9b:	48 8d 48 04          	lea    0x4(%rax),%rcx
    1d9f:	48 8b 55 e0          	mov    -0x20(%rbp),%rdx
    1da3:	48 8b 45 e8          	mov    -0x18(%rbp),%rax
    1da7:	48 8d 35 55 25 00 00 	lea    0x2555(%rip),%rsi        # 4303 <_IO_stdin_used+0x303>
    1dae:	48 89 c7             	mov    %rax,%rdi
    1db1:	b8 00 00 00 00       	mov    $0x0,%eax
    1db6:	e8 95 f3 ff ff       	call   1150 <__isoc99_sscanf@plt>
    1dbb:	89 45 fc             	mov    %eax,-0x4(%rbp)
    1dbe:	83 7d fc 01          	cmpl   $0x1,-0x4(%rbp)
    1dc2:	7f 05                	jg     1dc9 <read_two_numbers+0x42>
    1dc4:	e8 54 03 00 00       	call   211d <explode_bomb>
    1dc9:	90                   	nop
    1dca:	c9                   	leave
    1dcb:	c3                   	ret

0000000000001dcc <string_length>:
    1dcc:	55                   	push   %rbp
    1dcd:	48 89 e5             	mov    %rsp,%rbp
    1dd0:	48 89 7d e8          	mov    %rdi,-0x18(%rbp)
    1dd4:	48 8b 45 e8          	mov    -0x18(%rbp),%rax
    1dd8:	48 89 45 f0          	mov    %rax,-0x10(%rbp)
    1ddc:	c7 45 fc 00 00 00 00 	movl   $0x0,-0x4(%rbp)
    1de3:	eb 09                	jmp    1dee <string_length+0x22>
    1de5:	48 83 45 f0 01       	addq   $0x1,-0x10(%rbp)
    1dea:	83 45 fc 01          	addl   $0x1,-0x4(%rbp)
    1dee:	48 8b 45 f0          	mov    -0x10(%rbp),%rax
    1df2:	0f b6 00             	movzbl (%rax),%eax
    1df5:	84 c0                	test   %al,%al
    1df7:	75 ec                	jne    1de5 <string_length+0x19>
    1df9:	8b 45 fc             	mov    -0x4(%rbp),%eax
    1dfc:	5d                   	pop    %rbp
    1dfd:	c3                   	ret

0000000000001dfe <strings_not_equal>:
    1dfe:	55                   	push   %rbp
    1dff:	48 89 e5             	mov    %rsp,%rbp
    1e02:	53                   	push   %rbx
    1e03:	48 83 ec 20          	sub    $0x20,%rsp
    1e07:	48 89 7d e0          	mov    %rdi,-0x20(%rbp)
    1e0b:	48 89 75 d8          	mov    %rsi,-0x28(%rbp)
    1e0f:	48 8b 45 e0          	mov    -0x20(%rbp),%rax
    1e13:	48 89 c7             	mov    %rax,%rdi
    1e16:	e8 b1 ff ff ff       	call   1dcc <string_length>
    1e1b:	89 c3                	mov    %eax,%ebx
    1e1d:	48 8b 45 d8          	mov    -0x28(%rbp),%rax
    1e21:	48 89 c7             	mov    %rax,%rdi
    1e24:	e8 a3 ff ff ff       	call   1dcc <string_length>
    1e29:	39 c3                	cmp    %eax,%ebx
    1e2b:	74 07                	je     1e34 <strings_not_equal+0x36>
    1e2d:	b8 01 00 00 00       	mov    $0x1,%eax
    1e32:	eb 45                	jmp    1e79 <strings_not_equal+0x7b>
    1e34:	48 8b 45 e0          	mov    -0x20(%rbp),%rax
    1e38:	48 89 45 f0          	mov    %rax,-0x10(%rbp)
    1e3c:	48 8b 45 d8          	mov    -0x28(%rbp),%rax
    1e40:	48 89 45 e8          	mov    %rax,-0x18(%rbp)
    1e44:	eb 23                	jmp    1e69 <strings_not_equal+0x6b>
    1e46:	48 8b 45 f0          	mov    -0x10(%rbp),%rax
    1e4a:	0f b6 10             	movzbl (%rax),%edx
    1e4d:	48 8b 45 e8          	mov    -0x18(%rbp),%rax
    1e51:	0f b6 00             	movzbl (%rax),%eax
    1e54:	38 c2                	cmp    %al,%dl
    1e56:	74 07                	je     1e5f <strings_not_equal+0x61>
    1e58:	b8 01 00 00 00       	mov    $0x1,%eax
    1e5d:	eb 1a                	jmp    1e79 <strings_not_equal+0x7b>
    1e5f:	48 83 45 f0 01       	addq   $0x1,-0x10(%rbp)
    1e64:	48 83 45 e8 01       	addq   $0x1,-0x18(%rbp)
    1e69:	48 8b 45 f0          	mov    -0x10(%rbp),%rax
    1e6d:	0f b6 00             	movzbl (%rax),%eax
    1e70:	84 c0                	test   %al,%al
    1e72:	75 d2                	jne    1e46 <strings_not_equal+0x48>
    1e74:	b8 00 00 00 00       	mov    $0x0,%eax
    1e79:	48 8b 5d f8          	mov    -0x8(%rbp),%rbx
    1e7d:	c9                   	leave
    1e7e:	c3                   	ret

0000000000001e7f <initialize_bomb>:
    1e7f:	55                   	push   %rbp
    1e80:	48 89 e5             	mov    %rsp,%rbp
    1e83:	48 8d 05 f7 fd ff ff 	lea    -0x209(%rip),%rax        # 1c81 <sig_handler>
    1e8a:	48 89 c6             	mov    %rax,%rsi
    1e8d:	bf 02 00 00 00       	mov    $0x2,%edi
    1e92:	e8 69 f2 ff ff       	call   1100 <signal@plt>
    1e97:	90                   	nop
    1e98:	5d                   	pop    %rbp
    1e99:	c3                   	ret

0000000000001e9a <initialize_bomb_solve>:
    1e9a:	55                   	push   %rbp
    1e9b:	48 89 e5             	mov    %rsp,%rbp
    1e9e:	90                   	nop
    1e9f:	5d                   	pop    %rbp
    1ea0:	c3                   	ret

0000000000001ea1 <blank_line>:
    1ea1:	55                   	push   %rbp
    1ea2:	48 89 e5             	mov    %rsp,%rbp
    1ea5:	48 83 ec 10          	sub    $0x10,%rsp
    1ea9:	48 89 7d f8          	mov    %rdi,-0x8(%rbp)
    1ead:	eb 37                	jmp    1ee6 <blank_line+0x45>
    1eaf:	e8 0c f3 ff ff       	call   11c0 <__ctype_b_loc@plt>
    1eb4:	48 8b 08             	mov    (%rax),%rcx
    1eb7:	48 8b 45 f8          	mov    -0x8(%rbp),%rax
    1ebb:	48 8d 50 01          	lea    0x1(%rax),%rdx
    1ebf:	48 89 55 f8          	mov    %rdx,-0x8(%rbp)
    1ec3:	0f b6 00             	movzbl (%rax),%eax
    1ec6:	48 0f be c0          	movsbq %al,%rax
    1eca:	48 01 c0             	add    %rax,%rax
    1ecd:	48 01 c8             	add    %rcx,%rax
    1ed0:	0f b7 00             	movzwl (%rax),%eax
    1ed3:	0f b7 c0             	movzwl %ax,%eax
    1ed6:	25 00 20 00 00       	and    $0x2000,%eax
    1edb:	85 c0                	test   %eax,%eax
    1edd:	75 07                	jne    1ee6 <blank_line+0x45>
    1edf:	b8 00 00 00 00       	mov    $0x0,%eax
    1ee4:	eb 10                	jmp    1ef6 <blank_line+0x55>
    1ee6:	48 8b 45 f8          	mov    -0x8(%rbp),%rax
    1eea:	0f b6 00             	movzbl (%rax),%eax
    1eed:	84 c0                	test   %al,%al
    1eef:	75 be                	jne    1eaf <blank_line+0xe>
    1ef1:	b8 01 00 00 00       	mov    $0x1,%eax
    1ef6:	c9                   	leave
    1ef7:	c3                   	ret

0000000000001ef8 <skip>:
    1ef8:	55                   	push   %rbp
    1ef9:	48 89 e5             	mov    %rsp,%rbp
    1efc:	48 83 ec 10          	sub    $0x10,%rsp
    1f00:	48 8b 0d 89 47 00 00 	mov    0x4789(%rip),%rcx        # 6690 <infile>
    1f07:	8b 05 d3 4d 00 00    	mov    0x4dd3(%rip),%eax        # 6ce0 <num_input_strings>
    1f0d:	48 63 d0             	movslq %eax,%rdx
    1f10:	48 89 d0             	mov    %rdx,%rax
    1f13:	48 c1 e0 02          	shl    $0x2,%rax
    1f17:	48 01 d0             	add    %rdx,%rax
    1f1a:	48 c1 e0 04          	shl    $0x4,%rax
    1f1e:	48 8d 15 7b 47 00 00 	lea    0x477b(%rip),%rdx        # 66a0 <input_strings>
    1f25:	48 01 d0             	add    %rdx,%rax
    1f28:	48 89 ca             	mov    %rcx,%rdx
    1f2b:	be 50 00 00 00       	mov    $0x50,%esi
    1f30:	48 89 c7             	mov    %rax,%rdi
    1f33:	e8 a8 f1 ff ff       	call   10e0 <fgets@plt>
    1f38:	48 89 45 f8          	mov    %rax,-0x8(%rbp)
    1f3c:	48 83 7d f8 00       	cmpq   $0x0,-0x8(%rbp)
    1f41:	74 10                	je     1f53 <skip+0x5b>
    1f43:	48 8b 45 f8          	mov    -0x8(%rbp),%rax
    1f47:	48 89 c7             	mov    %rax,%rdi
    1f4a:	e8 52 ff ff ff       	call   1ea1 <blank_line>
    1f4f:	85 c0                	test   %eax,%eax
    1f51:	75 ad                	jne    1f00 <skip+0x8>
    1f53:	48 8b 45 f8          	mov    -0x8(%rbp),%rax
    1f57:	c9                   	leave
    1f58:	c3                   	ret

0000000000001f59 <read_line>:
    1f59:	55                   	push   %rbp
    1f5a:	48 89 e5             	mov    %rsp,%rbp
    1f5d:	48 83 ec 10          	sub    $0x10,%rsp
    1f61:	b8 00 00 00 00       	mov    $0x0,%eax
    1f66:	e8 8d ff ff ff       	call   1ef8 <skip>
    1f6b:	48 89 45 f8          	mov    %rax,-0x8(%rbp)
    1f6f:	48 83 7d f8 00       	cmpq   $0x0,-0x8(%rbp)
    1f74:	0f 85 86 00 00 00    	jne    2000 <read_line+0xa7>
    1f7a:	48 8b 15 0f 47 00 00 	mov    0x470f(%rip),%rdx        # 6690 <infile>
    1f81:	48 8b 05 e8 46 00 00 	mov    0x46e8(%rip),%rax        # 6670 <stdin@GLIBC_2.2.5>
    1f88:	48 39 c2             	cmp    %rax,%rdx
    1f8b:	75 19                	jne    1fa6 <read_line+0x4d>
    1f8d:	48 8d 05 75 23 00 00 	lea    0x2375(%rip),%rax        # 4309 <_IO_stdin_used+0x309>
    1f94:	48 89 c7             	mov    %rax,%rdi
    1f97:	e8 c4 f0 ff ff       	call   1060 <puts@plt>
    1f9c:	bf 08 00 00 00       	mov    $0x8,%edi
    1fa1:	e8 ea f1 ff ff       	call   1190 <exit@plt>
    1fa6:	48 8d 05 7a 23 00 00 	lea    0x237a(%rip),%rax        # 4327 <_IO_stdin_used+0x327>
    1fad:	48 89 c7             	mov    %rax,%rdi
    1fb0:	e8 7b f0 ff ff       	call   1030 <getenv@plt>
    1fb5:	48 85 c0             	test   %rax,%rax
    1fb8:	74 0a                	je     1fc4 <read_line+0x6b>
    1fba:	bf 00 00 00 00       	mov    $0x0,%edi
    1fbf:	e8 cc f1 ff ff       	call   1190 <exit@plt>
    1fc4:	48 8b 05 a5 46 00 00 	mov    0x46a5(%rip),%rax        # 6670 <stdin@GLIBC_2.2.5>
    1fcb:	48 89 05 be 46 00 00 	mov    %rax,0x46be(%rip)        # 6690 <infile>
    1fd2:	b8 00 00 00 00       	mov    $0x0,%eax
    1fd7:	e8 1c ff ff ff       	call   1ef8 <skip>
    1fdc:	48 89 45 f8          	mov    %rax,-0x8(%rbp)
    1fe0:	48 83 7d f8 00       	cmpq   $0x0,-0x8(%rbp)
    1fe5:	75 19                	jne    2000 <read_line+0xa7>
    1fe7:	48 8d 05 1b 23 00 00 	lea    0x231b(%rip),%rax        # 4309 <_IO_stdin_used+0x309>
    1fee:	48 89 c7             	mov    %rax,%rdi
    1ff1:	e8 6a f0 ff ff       	call   1060 <puts@plt>
    1ff6:	bf 00 00 00 00       	mov    $0x0,%edi
    1ffb:	e8 90 f1 ff ff       	call   1190 <exit@plt>
    2000:	8b 05 da 4c 00 00    	mov    0x4cda(%rip),%eax        # 6ce0 <num_input_strings>
    2006:	48 63 d0             	movslq %eax,%rdx
    2009:	48 89 d0             	mov    %rdx,%rax
    200c:	48 c1 e0 02          	shl    $0x2,%rax
    2010:	48 01 d0             	add    %rdx,%rax
    2013:	48 c1 e0 04          	shl    $0x4,%rax
    2017:	48 8d 15 82 46 00 00 	lea    0x4682(%rip),%rdx        # 66a0 <input_strings>
    201e:	48 01 d0             	add    %rdx,%rax
    2021:	48 89 c7             	mov    %rax,%rdi
    2024:	e8 57 f0 ff ff       	call   1080 <strlen@plt>
    2029:	89 45 f4             	mov    %eax,-0xc(%rbp)
    202c:	83 7d f4 4e          	cmpl   $0x4e,-0xc(%rbp)
    2030:	7e 59                	jle    208b <read_line+0x132>
    2032:	48 8d 05 f9 22 00 00 	lea    0x22f9(%rip),%rax        # 4332 <_IO_stdin_used+0x332>
    2039:	48 89 c7             	mov    %rax,%rdi
    203c:	e8 1f f0 ff ff       	call   1060 <puts@plt>
    2041:	8b 05 99 4c 00 00    	mov    0x4c99(%rip),%eax        # 6ce0 <num_input_strings>
    2047:	8d 50 01             	lea    0x1(%rax),%edx
    204a:	89 15 90 4c 00 00    	mov    %edx,0x4c90(%rip)        # 6ce0 <num_input_strings>
    2050:	48 63 d0             	movslq %eax,%rdx
    2053:	48 89 d0             	mov    %rdx,%rax
    2056:	48 c1 e0 02          	shl    $0x2,%rax
    205a:	48 01 d0             	add    %rdx,%rax
    205d:	48 c1 e0 04          	shl    $0x4,%rax
    2061:	48 8d 15 38 46 00 00 	lea    0x4638(%rip),%rdx        # 66a0 <input_strings>
    2068:	48 01 d0             	add    %rdx,%rax
    206b:	48 be 2a 2a 2a 74 72 	movabs $0x636e7572742a2a2a,%rsi
    2072:	75 6e 63 
    2075:	48 bf 61 74 65 64 2a 	movabs $0x2a2a2a64657461,%rdi
    207c:	2a 2a 00 
    207f:	48 89 30             	mov    %rsi,(%rax)
    2082:	48 89 78 08          	mov    %rdi,0x8(%rax)
    2086:	e8 92 00 00 00       	call   211d <explode_bomb>
    208b:	8b 05 4f 4c 00 00    	mov    0x4c4f(%rip),%eax        # 6ce0 <num_input_strings>
    2091:	8b 55 f4             	mov    -0xc(%rbp),%edx
    2094:	83 ea 01             	sub    $0x1,%edx
    2097:	48 63 ca             	movslq %edx,%rcx
    209a:	48 63 d0             	movslq %eax,%rdx
    209d:	48 89 d0             	mov    %rdx,%rax
    20a0:	48 c1 e0 02          	shl    $0x2,%rax
    20a4:	48 01 d0             	add    %rdx,%rax
    20a7:	48 c1 e0 04          	shl    $0x4,%rax
    20ab:	48 8d 14 08          	lea    (%rax,%rcx,1),%rdx
    20af:	48 8d 05 ea 45 00 00 	lea    0x45ea(%rip),%rax        # 66a0 <input_strings>
    20b6:	48 01 d0             	add    %rdx,%rax
    20b9:	0f b6 00             	movzbl (%rax),%eax
    20bc:	3c 0a                	cmp    $0xa,%al
    20be:	75 31                	jne    20f1 <read_line+0x198>
    20c0:	8b 05 1a 4c 00 00    	mov    0x4c1a(%rip),%eax        # 6ce0 <num_input_strings>
    20c6:	8b 55 f4             	mov    -0xc(%rbp),%edx
    20c9:	83 ea 01             	sub    $0x1,%edx
    20cc:	48 63 ca             	movslq %edx,%rcx
    20cf:	48 63 d0             	movslq %eax,%rdx
    20d2:	48 89 d0             	mov    %rdx,%rax
    20d5:	48 c1 e0 02          	shl    $0x2,%rax
    20d9:	48 01 d0             	add    %rdx,%rax
    20dc:	48 c1 e0 04          	shl    $0x4,%rax
    20e0:	48 8d 14 08          	lea    (%rax,%rcx,1),%rdx
    20e4:	48 8d 05 b5 45 00 00 	lea    0x45b5(%rip),%rax        # 66a0 <input_strings>
    20eb:	48 01 d0             	add    %rdx,%rax
    20ee:	c6 00 00             	movb   $0x0,(%rax)
    20f1:	8b 05 e9 4b 00 00    	mov    0x4be9(%rip),%eax        # 6ce0 <num_input_strings>
    20f7:	8d 50 01             	lea    0x1(%rax),%edx
    20fa:	89 15 e0 4b 00 00    	mov    %edx,0x4be0(%rip)        # 6ce0 <num_input_strings>
    2100:	48 63 d0             	movslq %eax,%rdx
    2103:	48 89 d0             	mov    %rdx,%rax
    2106:	48 c1 e0 02          	shl    $0x2,%rax
    210a:	48 01 d0             	add    %rdx,%rax
    210d:	48 c1 e0 04          	shl    $0x4,%rax
    2111:	48 8d 15 88 45 00 00 	lea    0x4588(%rip),%rdx        # 66a0 <input_strings>
    2118:	48 01 d0             	add    %rdx,%rax
    211b:	c9                   	leave
    211c:	c3                   	ret

000000000000211d <explode_bomb>:
    211d:	55                   	push   %rbp
    211e:	48 89 e5             	mov    %rsp,%rbp
    2121:	48 8d 05 25 22 00 00 	lea    0x2225(%rip),%rax        # 434d <_IO_stdin_used+0x34d>
    2128:	48 89 c7             	mov    %rax,%rdi
    212b:	e8 30 ef ff ff       	call   1060 <puts@plt>
    2130:	48 8d 05 1f 22 00 00 	lea    0x221f(%rip),%rax        # 4356 <_IO_stdin_used+0x356>
    2137:	48 89 c7             	mov    %rax,%rdi
    213a:	e8 21 ef ff ff       	call   1060 <puts@plt>
    213f:	bf 08 00 00 00       	mov    $0x8,%edi
    2144:	e8 47 f0 ff ff       	call   1190 <exit@plt>

0000000000002149 <phase_defused>:
    2149:	55                   	push   %rbp
    214a:	48 89 e5             	mov    %rsp,%rbp
    214d:	48 83 ec 70          	sub    $0x70,%rsp
    2151:	8b 05 89 4b 00 00    	mov    0x4b89(%rip),%eax        # 6ce0 <num_input_strings>
    2157:	83 f8 06             	cmp    $0x6,%eax
    215a:	0f 85 a1 00 00 00    	jne    2201 <phase_defused+0xb8>
    2160:	48 8d 7d 90          	lea    -0x70(%rbp),%rdi
    2164:	48 8d 75 94          	lea    -0x6c(%rbp),%rsi
    2168:	48 8d 55 98          	lea    -0x68(%rbp),%rdx
    216c:	48 8d 45 9c          	lea    -0x64(%rbp),%rax
    2170:	48 83 ec 08          	sub    $0x8,%rsp
    2174:	48 8d 4d a0          	lea    -0x60(%rbp),%rcx
    2178:	51                   	push   %rcx
    2179:	49 89 f9             	mov    %rdi,%r9
    217c:	49 89 f0             	mov    %rsi,%r8
    217f:	48 89 d1             	mov    %rdx,%rcx
    2182:	48 89 c2             	mov    %rax,%rdx
    2185:	48 8d 05 e1 21 00 00 	lea    0x21e1(%rip),%rax        # 436d <_IO_stdin_used+0x36d>
    218c:	48 89 c6             	mov    %rax,%rsi
    218f:	48 8d 05 fa 45 00 00 	lea    0x45fa(%rip),%rax        # 6790 <input_strings+0xf0>
    2196:	48 89 c7             	mov    %rax,%rdi
    2199:	b8 00 00 00 00       	mov    $0x0,%eax
    219e:	e8 ad ef ff ff       	call   1150 <__isoc99_sscanf@plt>
    21a3:	48 83 c4 10          	add    $0x10,%rsp
    21a7:	89 45 fc             	mov    %eax,-0x4(%rbp)
    21aa:	83 7d fc 05          	cmpl   $0x5,-0x4(%rbp)
    21ae:	75 42                	jne    21f2 <phase_defused+0xa9>
    21b0:	48 8d 45 a0          	lea    -0x60(%rbp),%rax
    21b4:	48 8d 15 c1 21 00 00 	lea    0x21c1(%rip),%rdx        # 437c <_IO_stdin_used+0x37c>
    21bb:	48 89 d6             	mov    %rdx,%rsi
    21be:	48 89 c7             	mov    %rax,%rdi
    21c1:	e8 38 fc ff ff       	call   1dfe <strings_not_equal>
    21c6:	85 c0                	test   %eax,%eax
    21c8:	75 28                	jne    21f2 <phase_defused+0xa9>
    21ca:	48 8d 05 b7 21 00 00 	lea    0x21b7(%rip),%rax        # 4388 <_IO_stdin_used+0x388>
    21d1:	48 89 c7             	mov    %rax,%rdi
    21d4:	e8 87 ee ff ff       	call   1060 <puts@plt>
    21d9:	48 8d 05 d0 21 00 00 	lea    0x21d0(%rip),%rax        # 43b0 <_IO_stdin_used+0x3b0>
    21e0:	48 89 c7             	mov    %rax,%rdi
    21e3:	e8 78 ee ff ff       	call   1060 <puts@plt>
    21e8:	b8 00 00 00 00       	mov    $0x0,%eax
    21ed:	e8 2c f9 ff ff       	call   1b1e <secret_phase>
    21f2:	48 8d 05 ef 21 00 00 	lea    0x21ef(%rip),%rax        # 43e8 <_IO_stdin_used+0x3e8>
    21f9:	48 89 c7             	mov    %rax,%rdi
    21fc:	e8 5f ee ff ff       	call   1060 <puts@plt>
    2201:	90                   	nop
    2202:	c9                   	leave
    2203:	c3                   	ret

0000000000002204 <sigalrm_handler>:
    2204:	55                   	push   %rbp
    2205:	48 89 e5             	mov    %rsp,%rbp
    2208:	48 83 ec 10          	sub    $0x10,%rsp
    220c:	89 7d fc             	mov    %edi,-0x4(%rbp)
    220f:	48 8b 05 6a 44 00 00 	mov    0x446a(%rip),%rax        # 6680 <stderr@GLIBC_2.2.5>
    2216:	ba 00 00 00 00       	mov    $0x0,%edx
    221b:	48 8d 0d f6 21 00 00 	lea    0x21f6(%rip),%rcx        # 4418 <_IO_stdin_used+0x418>
    2222:	48 89 ce             	mov    %rcx,%rsi
    2225:	48 89 c7             	mov    %rax,%rdi
    2228:	b8 00 00 00 00       	mov    $0x0,%eax
    222d:	e8 ee ee ff ff       	call   1120 <fprintf@plt>
    2232:	bf 01 00 00 00       	mov    $0x1,%edi
    2237:	e8 54 ef ff ff       	call   1190 <exit@plt>

000000000000223c <rio_readinitb>:
    223c:	55                   	push   %rbp
    223d:	48 89 e5             	mov    %rsp,%rbp
    2240:	48 89 7d f8          	mov    %rdi,-0x8(%rbp)
    2244:	89 75 f4             	mov    %esi,-0xc(%rbp)
    2247:	48 8b 45 f8          	mov    -0x8(%rbp),%rax
    224b:	8b 55 f4             	mov    -0xc(%rbp),%edx
    224e:	89 10                	mov    %edx,(%rax)
    2250:	48 8b 45 f8          	mov    -0x8(%rbp),%rax
    2254:	c7 40 04 00 00 00 00 	movl   $0x0,0x4(%rax)
    225b:	48 8b 45 f8          	mov    -0x8(%rbp),%rax
    225f:	48 8d 50 10          	lea    0x10(%rax),%rdx
    2263:	48 8b 45 f8          	mov    -0x8(%rbp),%rax
    2267:	48 89 50 08          	mov    %rdx,0x8(%rax)
    226b:	90                   	nop
    226c:	5d                   	pop    %rbp
    226d:	c3                   	ret

000000000000226e <rio_read>:
    226e:	55                   	push   %rbp
    226f:	48 89 e5             	mov    %rsp,%rbp
    2272:	48 83 ec 30          	sub    $0x30,%rsp
    2276:	48 89 7d e8          	mov    %rdi,-0x18(%rbp)
    227a:	48 89 75 e0          	mov    %rsi,-0x20(%rbp)
    227e:	48 89 55 d8          	mov    %rdx,-0x28(%rbp)
    2282:	eb 6e                	jmp    22f2 <rio_read+0x84>
    2284:	48 8b 45 e8          	mov    -0x18(%rbp),%rax
    2288:	48 8d 48 10          	lea    0x10(%rax),%rcx
    228c:	48 8b 45 e8          	mov    -0x18(%rbp),%rax
    2290:	8b 00                	mov    (%rax),%eax
    2292:	ba 00 20 00 00       	mov    $0x2000,%edx
    2297:	48 89 ce             	mov    %rcx,%rsi
    229a:	89 c7                	mov    %eax,%edi
    229c:	e8 2f ee ff ff       	call   10d0 <read@plt>
    22a1:	89 c2                	mov    %eax,%edx
    22a3:	48 8b 45 e8          	mov    -0x18(%rbp),%rax
    22a7:	89 50 04             	mov    %edx,0x4(%rax)
    22aa:	48 8b 45 e8          	mov    -0x18(%rbp),%rax
    22ae:	8b 40 04             	mov    0x4(%rax),%eax
    22b1:	85 c0                	test   %eax,%eax
    22b3:	79 18                	jns    22cd <rio_read+0x5f>
    22b5:	e8 86 ed ff ff       	call   1040 <__errno_location@plt>
    22ba:	8b 00                	mov    (%rax),%eax
    22bc:	83 f8 04             	cmp    $0x4,%eax
    22bf:	74 31                	je     22f2 <rio_read+0x84>
    22c1:	48 c7 c0 ff ff ff ff 	mov    $0xffffffffffffffff,%rax
    22c8:	e9 9d 00 00 00       	jmp    236a <rio_read+0xfc>
    22cd:	48 8b 45 e8          	mov    -0x18(%rbp),%rax
    22d1:	8b 40 04             	mov    0x4(%rax),%eax
    22d4:	85 c0                	test   %eax,%eax
    22d6:	75 0a                	jne    22e2 <rio_read+0x74>
    22d8:	b8 00 00 00 00       	mov    $0x0,%eax
    22dd:	e9 88 00 00 00       	jmp    236a <rio_read+0xfc>
    22e2:	48 8b 45 e8          	mov    -0x18(%rbp),%rax
    22e6:	48 8d 50 10          	lea    0x10(%rax),%rdx
    22ea:	48 8b 45 e8          	mov    -0x18(%rbp),%rax
    22ee:	48 89 50 08          	mov    %rdx,0x8(%rax)
    22f2:	48 8b 45 e8          	mov    -0x18(%rbp),%rax
    22f6:	8b 40 04             	mov    0x4(%rax),%eax
    22f9:	85 c0                	test   %eax,%eax
    22fb:	7e 87                	jle    2284 <rio_read+0x16>
    22fd:	48 8b 45 d8          	mov    -0x28(%rbp),%rax
    2301:	89 45 fc             	mov    %eax,-0x4(%rbp)
    2304:	48 8b 45 e8          	mov    -0x18(%rbp),%rax
    2308:	8b 40 04             	mov    0x4(%rax),%eax
    230b:	48 98                	cltq
    230d:	48 3b 45 d8          	cmp    -0x28(%rbp),%rax
    2311:	73 0a                	jae    231d <rio_read+0xaf>
    2313:	48 8b 45 e8          	mov    -0x18(%rbp),%rax
    2317:	8b 40 04             	mov    0x4(%rax),%eax
    231a:	89 45 fc             	mov    %eax,-0x4(%rbp)
    231d:	8b 45 fc             	mov    -0x4(%rbp),%eax
    2320:	48 63 d0             	movslq %eax,%rdx
    2323:	48 8b 45 e8          	mov    -0x18(%rbp),%rax
    2327:	48 8b 48 08          	mov    0x8(%rax),%rcx
    232b:	48 8b 45 e0          	mov    -0x20(%rbp),%rax
    232f:	48 89 ce             	mov    %rcx,%rsi
    2332:	48 89 c7             	mov    %rax,%rdi
    2335:	e8 f6 ed ff ff       	call   1130 <memcpy@plt>
    233a:	48 8b 45 e8          	mov    -0x18(%rbp),%rax
    233e:	48 8b 50 08          	mov    0x8(%rax),%rdx
    2342:	8b 45 fc             	mov    -0x4(%rbp),%eax
    2345:	48 98                	cltq
    2347:	48 01 c2             	add    %rax,%rdx
    234a:	48 8b 45 e8          	mov    -0x18(%rbp),%rax
    234e:	48 89 50 08          	mov    %rdx,0x8(%rax)
    2352:	48 8b 45 e8          	mov    -0x18(%rbp),%rax
    2356:	8b 40 04             	mov    0x4(%rax),%eax
    2359:	2b 45 fc             	sub    -0x4(%rbp),%eax
    235c:	89 c2                	mov    %eax,%edx
    235e:	48 8b 45 e8          	mov    -0x18(%rbp),%rax
    2362:	89 50 04             	mov    %edx,0x4(%rax)
    2365:	8b 45 fc             	mov    -0x4(%rbp),%eax
    2368:	48 98                	cltq
    236a:	c9                   	leave
    236b:	c3                   	ret

000000000000236c <rio_readlineb>:
    236c:	55                   	push   %rbp
    236d:	48 89 e5             	mov    %rsp,%rbp
    2370:	48 83 ec 40          	sub    $0x40,%rsp
    2374:	48 89 7d d8          	mov    %rdi,-0x28(%rbp)
    2378:	48 89 75 d0          	mov    %rsi,-0x30(%rbp)
    237c:	48 89 55 c8          	mov    %rdx,-0x38(%rbp)
    2380:	48 8b 45 d0          	mov    -0x30(%rbp),%rax
    2384:	48 89 45 f0          	mov    %rax,-0x10(%rbp)
    2388:	c7 45 fc 01 00 00 00 	movl   $0x1,-0x4(%rbp)
    238f:	eb 5d                	jmp    23ee <rio_readlineb+0x82>
    2391:	48 8d 4d eb          	lea    -0x15(%rbp),%rcx
    2395:	48 8b 45 d8          	mov    -0x28(%rbp),%rax
    2399:	ba 01 00 00 00       	mov    $0x1,%edx
    239e:	48 89 ce             	mov    %rcx,%rsi
    23a1:	48 89 c7             	mov    %rax,%rdi
    23a4:	e8 c5 fe ff ff       	call   226e <rio_read>
    23a9:	89 45 ec             	mov    %eax,-0x14(%rbp)
    23ac:	83 7d ec 01          	cmpl   $0x1,-0x14(%rbp)
    23b0:	75 1c                	jne    23ce <rio_readlineb+0x62>
    23b2:	48 8b 45 f0          	mov    -0x10(%rbp),%rax
    23b6:	48 8d 50 01          	lea    0x1(%rax),%rdx
    23ba:	48 89 55 f0          	mov    %rdx,-0x10(%rbp)
    23be:	0f b6 55 eb          	movzbl -0x15(%rbp),%edx
    23c2:	88 10                	mov    %dl,(%rax)
    23c4:	0f b6 45 eb          	movzbl -0x15(%rbp),%eax
    23c8:	3c 0a                	cmp    $0xa,%al
    23ca:	75 1e                	jne    23ea <rio_readlineb+0x7e>
    23cc:	eb 2e                	jmp    23fc <rio_readlineb+0x90>
    23ce:	83 7d ec 00          	cmpl   $0x0,-0x14(%rbp)
    23d2:	75 0d                	jne    23e1 <rio_readlineb+0x75>
    23d4:	83 7d fc 01          	cmpl   $0x1,-0x4(%rbp)
    23d8:	75 21                	jne    23fb <rio_readlineb+0x8f>
    23da:	b8 00 00 00 00       	mov    $0x0,%eax
    23df:	eb 27                	jmp    2408 <rio_readlineb+0x9c>
    23e1:	48 c7 c0 ff ff ff ff 	mov    $0xffffffffffffffff,%rax
    23e8:	eb 1e                	jmp    2408 <rio_readlineb+0x9c>
    23ea:	83 45 fc 01          	addl   $0x1,-0x4(%rbp)
    23ee:	8b 45 fc             	mov    -0x4(%rbp),%eax
    23f1:	48 98                	cltq
    23f3:	48 3b 45 c8          	cmp    -0x38(%rbp),%rax
    23f7:	72 98                	jb     2391 <rio_readlineb+0x25>
    23f9:	eb 01                	jmp    23fc <rio_readlineb+0x90>
    23fb:	90                   	nop
    23fc:	48 8b 45 f0          	mov    -0x10(%rbp),%rax
    2400:	c6 00 00             	movb   $0x0,(%rax)
    2403:	8b 45 fc             	mov    -0x4(%rbp),%eax
    2406:	48 98                	cltq
    2408:	c9                   	leave
    2409:	c3                   	ret

000000000000240a <rio_writen>:
    240a:	55                   	push   %rbp
    240b:	48 89 e5             	mov    %rsp,%rbp
    240e:	48 83 ec 40          	sub    $0x40,%rsp
    2412:	89 7d dc             	mov    %edi,-0x24(%rbp)
    2415:	48 89 75 d0          	mov    %rsi,-0x30(%rbp)
    2419:	48 89 55 c8          	mov    %rdx,-0x38(%rbp)
    241d:	48 8b 45 c8          	mov    -0x38(%rbp),%rax
    2421:	48 89 45 f8          	mov    %rax,-0x8(%rbp)
    2425:	48 8b 45 d0          	mov    -0x30(%rbp),%rax
    2429:	48 89 45 e8          	mov    %rax,-0x18(%rbp)
    242d:	eb 4f                	jmp    247e <rio_writen+0x74>
    242f:	48 8b 55 f8          	mov    -0x8(%rbp),%rdx
    2433:	48 8b 4d e8          	mov    -0x18(%rbp),%rcx
    2437:	8b 45 dc             	mov    -0x24(%rbp),%eax
    243a:	48 89 ce             	mov    %rcx,%rsi
    243d:	89 c7                	mov    %eax,%edi
    243f:	e8 2c ec ff ff       	call   1070 <write@plt>
    2444:	48 89 45 f0          	mov    %rax,-0x10(%rbp)
    2448:	48 83 7d f0 00       	cmpq   $0x0,-0x10(%rbp)
    244d:	7f 1f                	jg     246e <rio_writen+0x64>
    244f:	e8 ec eb ff ff       	call   1040 <__errno_location@plt>
    2454:	8b 00                	mov    (%rax),%eax
    2456:	83 f8 04             	cmp    $0x4,%eax
    2459:	75 0a                	jne    2465 <rio_writen+0x5b>
    245b:	48 c7 45 f0 00 00 00 	movq   $0x0,-0x10(%rbp)
    2462:	00 
    2463:	eb 09                	jmp    246e <rio_writen+0x64>
    2465:	48 c7 c0 ff ff ff ff 	mov    $0xffffffffffffffff,%rax
    246c:	eb 1b                	jmp    2489 <rio_writen+0x7f>
    246e:	48 8b 45 f0          	mov    -0x10(%rbp),%rax
    2472:	48 29 45 f8          	sub    %rax,-0x8(%rbp)
    2476:	48 8b 45 f0          	mov    -0x10(%rbp),%rax
    247a:	48 01 45 e8          	add    %rax,-0x18(%rbp)
    247e:	48 83 7d f8 00       	cmpq   $0x0,-0x8(%rbp)
    2483:	75 aa                	jne    242f <rio_writen+0x25>
    2485:	48 8b 45 c8          	mov    -0x38(%rbp),%rax
    2489:	c9                   	leave
    248a:	c3                   	ret

000000000000248b <urlencode>:
    248b:	55                   	push   %rbp
    248c:	48 89 e5             	mov    %rsp,%rbp
    248f:	48 83 ec 20          	sub    $0x20,%rsp
    2493:	48 89 7d e8          	mov    %rdi,-0x18(%rbp)
    2497:	48 89 75 e0          	mov    %rsi,-0x20(%rbp)
    249b:	48 8b 45 e8          	mov    -0x18(%rbp),%rax
    249f:	48 89 c7             	mov    %rax,%rdi
    24a2:	e8 d9 eb ff ff       	call   1080 <strlen@plt>
    24a7:	89 45 fc             	mov    %eax,-0x4(%rbp)
    24aa:	e9 37 01 00 00       	jmp    25e6 <urlencode+0x15b>
    24af:	48 8b 45 e8          	mov    -0x18(%rbp),%rax
    24b3:	0f b6 00             	movzbl (%rax),%eax
    24b6:	3c 2a                	cmp    $0x2a,%al
    24b8:	74 63                	je     251d <urlencode+0x92>
    24ba:	48 8b 45 e8          	mov    -0x18(%rbp),%rax
    24be:	0f b6 00             	movzbl (%rax),%eax
    24c1:	3c 2d                	cmp    $0x2d,%al
    24c3:	74 58                	je     251d <urlencode+0x92>
    24c5:	48 8b 45 e8          	mov    -0x18(%rbp),%rax
    24c9:	0f b6 00             	movzbl (%rax),%eax
    24cc:	3c 2e                	cmp    $0x2e,%al
    24ce:	74 4d                	je     251d <urlencode+0x92>
    24d0:	48 8b 45 e8          	mov    -0x18(%rbp),%rax
    24d4:	0f b6 00             	movzbl (%rax),%eax
    24d7:	3c 5f                	cmp    $0x5f,%al
    24d9:	74 42                	je     251d <urlencode+0x92>
    24db:	48 8b 45 e8          	mov    -0x18(%rbp),%rax
    24df:	0f b6 00             	movzbl (%rax),%eax
    24e2:	3c 2f                	cmp    $0x2f,%al
    24e4:	76 0b                	jbe    24f1 <urlencode+0x66>
    24e6:	48 8b 45 e8          	mov    -0x18(%rbp),%rax
    24ea:	0f b6 00             	movzbl (%rax),%eax
    24ed:	3c 39                	cmp    $0x39,%al
    24ef:	76 2c                	jbe    251d <urlencode+0x92>
    24f1:	48 8b 45 e8          	mov    -0x18(%rbp),%rax
    24f5:	0f b6 00             	movzbl (%rax),%eax
    24f8:	3c 40                	cmp    $0x40,%al
    24fa:	76 0b                	jbe    2507 <urlencode+0x7c>
    24fc:	48 8b 45 e8          	mov    -0x18(%rbp),%rax
    2500:	0f b6 00             	movzbl (%rax),%eax
    2503:	3c 5a                	cmp    $0x5a,%al
    2505:	76 16                	jbe    251d <urlencode+0x92>
    2507:	48 8b 45 e8          	mov    -0x18(%rbp),%rax
    250b:	0f b6 00             	movzbl (%rax),%eax
    250e:	3c 60                	cmp    $0x60,%al
    2510:	76 25                	jbe    2537 <urlencode+0xac>
    2512:	48 8b 45 e8          	mov    -0x18(%rbp),%rax
    2516:	0f b6 00             	movzbl (%rax),%eax
    2519:	3c 7a                	cmp    $0x7a,%al
    251b:	77 1a                	ja     2537 <urlencode+0xac>
    251d:	48 8b 45 e0          	mov    -0x20(%rbp),%rax
    2521:	48 8d 50 01          	lea    0x1(%rax),%rdx
    2525:	48 89 55 e0          	mov    %rdx,-0x20(%rbp)
    2529:	48 8b 55 e8          	mov    -0x18(%rbp),%rdx
    252d:	0f b6 12             	movzbl (%rdx),%edx
    2530:	88 10                	mov    %dl,(%rax)
    2532:	e9 aa 00 00 00       	jmp    25e1 <urlencode+0x156>
    2537:	48 8b 45 e8          	mov    -0x18(%rbp),%rax
    253b:	0f b6 00             	movzbl (%rax),%eax
    253e:	3c 20                	cmp    $0x20,%al
    2540:	75 14                	jne    2556 <urlencode+0xcb>
    2542:	48 8b 45 e0          	mov    -0x20(%rbp),%rax
    2546:	48 8d 50 01          	lea    0x1(%rax),%rdx
    254a:	48 89 55 e0          	mov    %rdx,-0x20(%rbp)
    254e:	c6 00 2b             	movb   $0x2b,(%rax)
    2551:	e9 8b 00 00 00       	jmp    25e1 <urlencode+0x156>
    2556:	48 8b 45 e8          	mov    -0x18(%rbp),%rax
    255a:	0f b6 00             	movzbl (%rax),%eax
    255d:	3c 1f                	cmp    $0x1f,%al
    255f:	76 0b                	jbe    256c <urlencode+0xe1>
    2561:	48 8b 45 e8          	mov    -0x18(%rbp),%rax
    2565:	0f b6 00             	movzbl (%rax),%eax
    2568:	84 c0                	test   %al,%al
    256a:	79 0b                	jns    2577 <urlencode+0xec>
    256c:	48 8b 45 e8          	mov    -0x18(%rbp),%rax
    2570:	0f b6 00             	movzbl (%rax),%eax
    2573:	3c 09                	cmp    $0x9,%al
    2575:	75 63                	jne    25da <urlencode+0x14f>
    2577:	48 8b 45 e8          	mov    -0x18(%rbp),%rax
    257b:	0f b6 00             	movzbl (%rax),%eax
    257e:	0f b6 d0             	movzbl %al,%edx
    2581:	48 8d 45 f4          	lea    -0xc(%rbp),%rax
    2585:	48 8d 0d b0 1e 00 00 	lea    0x1eb0(%rip),%rcx        # 443c <_IO_stdin_used+0x43c>
    258c:	48 89 ce             	mov    %rcx,%rsi
    258f:	48 89 c7             	mov    %rax,%rdi
    2592:	b8 00 00 00 00       	mov    $0x0,%eax
    2597:	e8 e4 eb ff ff       	call   1180 <sprintf@plt>
    259c:	0f b6 4d f4          	movzbl -0xc(%rbp),%ecx
    25a0:	48 8b 45 e0          	mov    -0x20(%rbp),%rax
    25a4:	48 8d 50 01          	lea    0x1(%rax),%rdx
    25a8:	48 89 55 e0          	mov    %rdx,-0x20(%rbp)
    25ac:	89 ca                	mov    %ecx,%edx
    25ae:	88 10                	mov    %dl,(%rax)
    25b0:	0f b6 4d f5          	movzbl -0xb(%rbp),%ecx
    25b4:	48 8b 45 e0          	mov    -0x20(%rbp),%rax
    25b8:	48 8d 50 01          	lea    0x1(%rax),%rdx
    25bc:	48 89 55 e0          	mov    %rdx,-0x20(%rbp)
    25c0:	89 ca                	mov    %ecx,%edx
    25c2:	88 10                	mov    %dl,(%rax)
    25c4:	0f b6 4d f6          	movzbl -0xa(%rbp),%ecx
    25c8:	48 8b 45 e0          	mov    -0x20(%rbp),%rax
    25cc:	48 8d 50 01          	lea    0x1(%rax),%rdx
    25d0:	48 89 55 e0          	mov    %rdx,-0x20(%rbp)
    25d4:	89 ca                	mov    %ecx,%edx
    25d6:	88 10                	mov    %dl,(%rax)
    25d8:	eb 07                	jmp    25e1 <urlencode+0x156>
    25da:	b8 ff ff ff ff       	mov    $0xffffffff,%eax
    25df:	eb 1b                	jmp    25fc <urlencode+0x171>
    25e1:	48 83 45 e8 01       	addq   $0x1,-0x18(%rbp)
    25e6:	8b 45 fc             	mov    -0x4(%rbp),%eax
    25e9:	8d 50 ff             	lea    -0x1(%rax),%edx
    25ec:	89 55 fc             	mov    %edx,-0x4(%rbp)
    25ef:	85 c0                	test   %eax,%eax
    25f1:	0f 85 b8 fe ff ff    	jne    24af <urlencode+0x24>
    25f7:	b8 00 00 00 00       	mov    $0x0,%eax
    25fc:	c9                   	leave
    25fd:	c3                   	ret

00000000000025fe <submitr>:
    25fe:	55                   	push   %rbp
    25ff:	48 89 e5             	mov    %rsp,%rbp
    2602:	53                   	push   %rbx
    2603:	48 81 ec 38 a0 00 00 	sub    $0xa038,%rsp
    260a:	48 89 bd e8 5f ff ff 	mov    %rdi,-0xa018(%rbp)
    2611:	89 b5 e4 5f ff ff    	mov    %esi,-0xa01c(%rbp)
    2617:	48 89 95 d8 5f ff ff 	mov    %rdx,-0xa028(%rbp)
    261e:	48 89 8d d0 5f ff ff 	mov    %rcx,-0xa030(%rbp)
    2625:	4c 89 85 c8 5f ff ff 	mov    %r8,-0xa038(%rbp)
    262c:	4c 89 8d c0 5f ff ff 	mov    %r9,-0xa040(%rbp)
    2633:	c7 85 fc 7f ff ff 00 	movl   $0x0,-0x8004(%rbp)
    263a:	00 00 00 
    263d:	ba 00 00 00 00       	mov    $0x0,%edx
    2642:	be 01 00 00 00       	mov    $0x1,%esi
    2647:	bf 02 00 00 00       	mov    $0x2,%edi
    264c:	e8 7f eb ff ff       	call   11d0 <socket@plt>
    2651:	89 45 ec             	mov    %eax,-0x14(%rbp)
    2654:	83 7d ec 00          	cmpl   $0x0,-0x14(%rbp)
    2658:	79 53                	jns    26ad <submitr+0xaf>
    265a:	48 8b 45 10          	mov    0x10(%rbp),%rax
    265e:	48 bb 45 72 72 6f 72 	movabs $0x43203a726f727245,%rbx
    2665:	3a 20 43 
    2668:	48 be 6c 69 65 6e 74 	movabs $0x6e7520746e65696c,%rsi
    266f:	20 75 6e 
    2672:	48 89 18             	mov    %rbx,(%rax)
    2675:	48 89 70 08          	mov    %rsi,0x8(%rax)
    2679:	48 bb 61 62 6c 65 20 	movabs $0x206f7420656c6261,%rbx
    2680:	74 6f 20 
    2683:	48 be 63 72 65 61 74 	movabs $0x7320657461657263,%rsi
    268a:	65 20 73 
    268d:	48 89 58 10          	mov    %rbx,0x10(%rax)
    2691:	48 89 70 18          	mov    %rsi,0x18(%rax)
    2695:	48 bf 20 73 6f 63 6b 	movabs $0x74656b636f7320,%rdi
    269c:	65 74 00 
    269f:	48 89 78 1e          	mov    %rdi,0x1e(%rax)
    26a3:	b8 ff ff ff ff       	mov    $0xffffffff,%eax
    26a8:	e9 8c 06 00 00       	jmp    2d39 <submitr+0x73b>
    26ad:	48 8b 85 e8 5f ff ff 	mov    -0xa018(%rbp),%rax
    26b4:	48 89 c7             	mov    %rax,%rdi
    26b7:	e8 54 ea ff ff       	call   1110 <gethostbyname@plt>
    26bc:	48 89 45 e0          	mov    %rax,-0x20(%rbp)
    26c0:	48 83 7d e0 00       	cmpq   $0x0,-0x20(%rbp)
    26c5:	75 6b                	jne    2732 <submitr+0x134>
    26c7:	48 8b 45 10          	mov    0x10(%rbp),%rax
    26cb:	48 bb 45 72 72 6f 72 	movabs $0x44203a726f727245,%rbx
    26d2:	3a 20 44 
    26d5:	48 be 4e 53 20 69 73 	movabs $0x6e7520736920534e,%rsi
    26dc:	20 75 6e 
    26df:	48 89 18             	mov    %rbx,(%rax)
    26e2:	48 89 70 08          	mov    %rsi,0x8(%rax)
    26e6:	48 bb 61 62 6c 65 20 	movabs $0x206f7420656c6261,%rbx
    26ed:	74 6f 20 
    26f0:	48 be 72 65 73 6f 6c 	movabs $0x2065766c6f736572,%rsi
    26f7:	76 65 20 
    26fa:	48 89 58 10          	mov    %rbx,0x10(%rax)
    26fe:	48 89 70 18          	mov    %rsi,0x18(%rax)
    2702:	48 bb 20 73 65 72 76 	movabs $0x2072657672657320,%rbx
    2709:	65 72 20 
    270c:	48 be 61 64 64 72 65 	movabs $0x73736572646461,%rsi
    2713:	73 73 00 
    2716:	48 89 58 1f          	mov    %rbx,0x1f(%rax)
    271a:	48 89 70 27          	mov    %rsi,0x27(%rax)
    271e:	8b 45 ec             	mov    -0x14(%rbp),%eax
    2721:	89 c7                	mov    %eax,%edi
    2723:	e8 98 e9 ff ff       	call   10c0 <close@plt>
    2728:	b8 ff ff ff ff       	mov    $0xffffffff,%eax
    272d:	e9 07 06 00 00       	jmp    2d39 <submitr+0x73b>
    2732:	48 8d 45 c0          	lea    -0x40(%rbp),%rax
    2736:	66 0f ef c0          	pxor   %xmm0,%xmm0
    273a:	0f 29 00             	movaps %xmm0,(%rax)
    273d:	66 c7 45 c0 02 00    	movw   $0x2,-0x40(%rbp)
    2743:	48 8b 45 e0          	mov    -0x20(%rbp),%rax
    2747:	8b 40 14             	mov    0x14(%rax),%eax
    274a:	48 63 d0             	movslq %eax,%rdx
    274d:	48 8b 45 e0          	mov    -0x20(%rbp),%rax
    2751:	48 8b 40 18          	mov    0x18(%rax),%rax
    2755:	48 8b 00             	mov    (%rax),%rax
    2758:	48 8d 4d c0          	lea    -0x40(%rbp),%rcx
    275c:	48 83 c1 04          	add    $0x4,%rcx
    2760:	48 89 c6             	mov    %rax,%rsi
    2763:	48 89 cf             	mov    %rcx,%rdi
    2766:	e8 f5 e9 ff ff       	call   1160 <memmove@plt>
    276b:	8b 85 e4 5f ff ff    	mov    -0xa01c(%rbp),%eax
    2771:	0f b7 c0             	movzwl %ax,%eax
    2774:	89 c7                	mov    %eax,%edi
    2776:	e8 15 e9 ff ff       	call   1090 <htons@plt>
    277b:	66 89 45 c2          	mov    %ax,-0x3e(%rbp)
    277f:	48 8d 4d c0          	lea    -0x40(%rbp),%rcx
    2783:	8b 45 ec             	mov    -0x14(%rbp),%eax
    2786:	ba 10 00 00 00       	mov    $0x10,%edx
    278b:	48 89 ce             	mov    %rcx,%rsi
    278e:	89 c7                	mov    %eax,%edi
    2790:	e8 0b ea ff ff       	call   11a0 <connect@plt>
    2795:	85 c0                	test   %eax,%eax
    2797:	79 5d                	jns    27f6 <submitr+0x1f8>
    2799:	48 8b 45 10          	mov    0x10(%rbp),%rax
    279d:	48 bb 45 72 72 6f 72 	movabs $0x55203a726f727245,%rbx
    27a4:	3a 20 55 
    27a7:	48 be 6e 61 62 6c 65 	movabs $0x6f7420656c62616e,%rsi
    27ae:	20 74 6f 
    27b1:	48 89 18             	mov    %rbx,(%rax)
    27b4:	48 89 70 08          	mov    %rsi,0x8(%rax)
    27b8:	48 bb 20 63 6f 6e 6e 	movabs $0x7463656e6e6f6320,%rbx
    27bf:	65 63 74 
    27c2:	48 be 20 74 6f 20 74 	movabs $0x20656874206f7420,%rsi
    27c9:	68 65 20 
    27cc:	48 89 58 10          	mov    %rbx,0x10(%rax)
    27d0:	48 89 70 18          	mov    %rsi,0x18(%rax)
    27d4:	48 bf 20 73 65 72 76 	movabs $0x72657672657320,%rdi
    27db:	65 72 00 
    27de:	48 89 78 1f          	mov    %rdi,0x1f(%rax)
    27e2:	8b 45 ec             	mov    -0x14(%rbp),%eax
    27e5:	89 c7                	mov    %eax,%edi
    27e7:	e8 d4 e8 ff ff       	call   10c0 <close@plt>
    27ec:	b8 ff ff ff ff       	mov    $0xffffffff,%eax
    27f1:	e9 43 05 00 00       	jmp    2d39 <submitr+0x73b>
    27f6:	48 8b 85 c0 5f ff ff 	mov    -0xa040(%rbp),%rax
    27fd:	48 89 c7             	mov    %rax,%rdi
    2800:	e8 7b e8 ff ff       	call   1080 <strlen@plt>
    2805:	48 89 45 d8          	mov    %rax,-0x28(%rbp)
    2809:	48 8b 85 d8 5f ff ff 	mov    -0xa028(%rbp),%rax
    2810:	48 89 c7             	mov    %rax,%rdi
    2813:	e8 68 e8 ff ff       	call   1080 <strlen@plt>
    2818:	48 89 c3             	mov    %rax,%rbx
    281b:	48 8b 85 d0 5f ff ff 	mov    -0xa030(%rbp),%rax
    2822:	48 89 c7             	mov    %rax,%rdi
    2825:	e8 56 e8 ff ff       	call   1080 <strlen@plt>
    282a:	48 01 c3             	add    %rax,%rbx
    282d:	48 8b 85 c8 5f ff ff 	mov    -0xa038(%rbp),%rax
    2834:	48 89 c7             	mov    %rax,%rdi
    2837:	e8 44 e8 ff ff       	call   1080 <strlen@plt>
    283c:	48 8d 0c 03          	lea    (%rbx,%rax,1),%rcx
    2840:	48 8b 55 d8          	mov    -0x28(%rbp),%rdx
    2844:	48 89 d0             	mov    %rdx,%rax
    2847:	48 01 c0             	add    %rax,%rax
    284a:	48 01 d0             	add    %rdx,%rax
    284d:	48 01 c8             	add    %rcx,%rax
    2850:	48 83 e8 80          	sub    $0xffffffffffffff80,%rax
    2854:	48 89 45 d0          	mov    %rax,-0x30(%rbp)
    2858:	48 81 7d d0 b0 1f 00 	cmpq   $0x1fb0,-0x30(%rbp)
    285f:	00 
    2860:	76 79                	jbe    28db <submitr+0x2dd>
    2862:	48 8b 45 10          	mov    0x10(%rbp),%rax
    2866:	48 bb 45 72 72 6f 72 	movabs $0x52203a726f727245,%rbx
    286d:	3a 20 52 
    2870:	48 be 65 73 75 6c 74 	movabs $0x747320746c757365,%rsi
    2877:	20 73 74 
    287a:	48 89 18             	mov    %rbx,(%rax)
    287d:	48 89 70 08          	mov    %rsi,0x8(%rax)
    2881:	48 bb 72 69 6e 67 20 	movabs $0x6f6f7420676e6972,%rbx
    2888:	74 6f 6f 
    288b:	48 be 20 6c 61 72 67 	movabs $0x202e656772616c20,%rsi
    2892:	65 2e 20 
    2895:	48 89 58 10          	mov    %rbx,0x10(%rax)
    2899:	48 89 70 18          	mov    %rsi,0x18(%rax)
    289d:	48 bb 49 6e 63 72 65 	movabs $0x6573616572636e49,%rbx
    28a4:	61 73 65 
    28a7:	48 be 20 53 55 42 4d 	movabs $0x5254494d42555320,%rsi
    28ae:	49 54 52 
    28b1:	48 89 58 20          	mov    %rbx,0x20(%rax)
    28b5:	48 89 70 28          	mov    %rsi,0x28(%rax)
    28b9:	48 bf 5f 4d 41 58 42 	movabs $0x46554258414d5f,%rdi
    28c0:	55 46 00 
    28c3:	48 89 78 30          	mov    %rdi,0x30(%rax)
    28c7:	8b 45 ec             	mov    -0x14(%rbp),%eax
    28ca:	89 c7                	mov    %eax,%edi
    28cc:	e8 ef e7 ff ff       	call   10c0 <close@plt>
    28d1:	b8 ff ff ff ff       	mov    $0xffffffff,%eax
    28d6:	e9 5e 04 00 00       	jmp    2d39 <submitr+0x73b>
    28db:	48 8d 85 00 a0 ff ff 	lea    -0x6000(%rbp),%rax
    28e2:	48 89 c6             	mov    %rax,%rsi
    28e5:	b8 00 00 00 00       	mov    $0x0,%eax
    28ea:	ba f6 03 00 00       	mov    $0x3f6,%edx
    28ef:	48 89 f7             	mov    %rsi,%rdi
    28f2:	48 89 d1             	mov    %rdx,%rcx
    28f5:	f3 48 ab             	rep stos %rax,%es:(%rdi)
    28f8:	48 8d 95 00 a0 ff ff 	lea    -0x6000(%rbp),%rdx
    28ff:	48 8b 85 c0 5f ff ff 	mov    -0xa040(%rbp),%rax
    2906:	48 89 d6             	mov    %rdx,%rsi
    2909:	48 89 c7             	mov    %rax,%rdi
    290c:	e8 7a fb ff ff       	call   248b <urlencode>
    2911:	85 c0                	test   %eax,%eax
    2913:	0f 89 8e 00 00 00    	jns    29a7 <submitr+0x3a9>
    2919:	48 8b 45 10          	mov    0x10(%rbp),%rax
    291d:	48 bb 45 72 72 6f 72 	movabs $0x52203a726f727245,%rbx
    2924:	3a 20 52 
    2927:	48 be 65 73 75 6c 74 	movabs $0x747320746c757365,%rsi
    292e:	20 73 74 
    2931:	48 89 18             	mov    %rbx,(%rax)
    2934:	48 89 70 08          	mov    %rsi,0x8(%rax)
    2938:	48 bb 72 69 6e 67 20 	movabs $0x6e6f6320676e6972,%rbx
    293f:	63 6f 6e 
    2942:	48 be 74 61 69 6e 73 	movabs $0x6e6120736e696174,%rsi
    2949:	20 61 6e 
    294c:	48 89 58 10          	mov    %rbx,0x10(%rax)
    2950:	48 89 70 18          	mov    %rsi,0x18(%rax)
    2954:	48 b9 20 69 6c 6c 65 	movabs $0x6c6167656c6c6920,%rcx
    295b:	67 61 6c 
    295e:	48 bb 20 6f 72 20 75 	movabs $0x72706e7520726f20,%rbx
    2965:	6e 70 72 
    2968:	48 89 48 20          	mov    %rcx,0x20(%rax)
    296c:	48 89 58 28          	mov    %rbx,0x28(%rax)
    2970:	48 b9 69 6e 74 61 62 	movabs $0x20656c6261746e69,%rcx
    2977:	6c 65 20 
    297a:	48 bb 63 68 61 72 61 	movabs $0x6574636172616863,%rbx
    2981:	63 74 65 
    2984:	48 89 48 30          	mov    %rcx,0x30(%rax)
    2988:	48 89 58 38          	mov    %rbx,0x38(%rax)
    298c:	c7 40 3f 65 72 2e 00 	movl   $0x2e7265,0x3f(%rax)
    2993:	8b 45 ec             	mov    -0x14(%rbp),%eax
    2996:	89 c7                	mov    %eax,%edi
    2998:	e8 23 e7 ff ff       	call   10c0 <close@plt>
    299d:	b8 ff ff ff ff       	mov    $0xffffffff,%eax
    29a2:	e9 92 03 00 00       	jmp    2d39 <submitr+0x73b>
    29a7:	48 8d bd 00 a0 ff ff 	lea    -0x6000(%rbp),%rdi
    29ae:	48 8b b5 c8 5f ff ff 	mov    -0xa038(%rbp),%rsi
    29b5:	48 8b 8d d0 5f ff ff 	mov    -0xa030(%rbp),%rcx
    29bc:	48 8b 95 d8 5f ff ff 	mov    -0xa028(%rbp),%rdx
    29c3:	48 8d 85 b0 bf ff ff 	lea    -0x4050(%rbp),%rax
    29ca:	49 89 f9             	mov    %rdi,%r9
    29cd:	49 89 f0             	mov    %rsi,%r8
    29d0:	48 8d 35 71 1a 00 00 	lea    0x1a71(%rip),%rsi        # 4448 <_IO_stdin_used+0x448>
    29d7:	48 89 c7             	mov    %rax,%rdi
    29da:	b8 00 00 00 00       	mov    $0x0,%eax
    29df:	e8 9c e7 ff ff       	call   1180 <sprintf@plt>
    29e4:	48 8d 85 b0 bf ff ff 	lea    -0x4050(%rbp),%rax
    29eb:	48 89 c7             	mov    %rax,%rdi
    29ee:	e8 8d e6 ff ff       	call   1080 <strlen@plt>
    29f3:	48 89 c2             	mov    %rax,%rdx
    29f6:	48 8d 8d b0 bf ff ff 	lea    -0x4050(%rbp),%rcx
    29fd:	8b 45 ec             	mov    -0x14(%rbp),%eax
    2a00:	48 89 ce             	mov    %rcx,%rsi
    2a03:	89 c7                	mov    %eax,%edi
    2a05:	e8 00 fa ff ff       	call   240a <rio_writen>
    2a0a:	48 85 c0             	test   %rax,%rax
    2a0d:	79 6b                	jns    2a7a <submitr+0x47c>
    2a0f:	48 8b 45 10          	mov    0x10(%rbp),%rax
    2a13:	48 b9 45 72 72 6f 72 	movabs $0x43203a726f727245,%rcx
    2a1a:	3a 20 43 
    2a1d:	48 bb 6c 69 65 6e 74 	movabs $0x6e7520746e65696c,%rbx
    2a24:	20 75 6e 
    2a27:	48 89 08             	mov    %rcx,(%rax)
    2a2a:	48 89 58 08          	mov    %rbx,0x8(%rax)
    2a2e:	48 b9 61 62 6c 65 20 	movabs $0x206f7420656c6261,%rcx
    2a35:	74 6f 20 
    2a38:	48 bb 77 72 69 74 65 	movabs $0x6f74206574697277,%rbx
    2a3f:	20 74 6f 
    2a42:	48 89 48 10          	mov    %rcx,0x10(%rax)
    2a46:	48 89 58 18          	mov    %rbx,0x18(%rax)
    2a4a:	48 ba 65 20 74 6f 20 	movabs $0x656874206f742065,%rdx
    2a51:	74 68 65 
    2a54:	48 b9 20 73 65 72 76 	movabs $0x72657672657320,%rcx
    2a5b:	65 72 00 
    2a5e:	48 89 50 1c          	mov    %rdx,0x1c(%rax)
    2a62:	48 89 48 24          	mov    %rcx,0x24(%rax)
    2a66:	8b 45 ec             	mov    -0x14(%rbp),%eax
    2a69:	89 c7                	mov    %eax,%edi
    2a6b:	e8 50 e6 ff ff       	call   10c0 <close@plt>
    2a70:	b8 ff ff ff ff       	mov    $0xffffffff,%eax
    2a75:	e9 bf 02 00 00       	jmp    2d39 <submitr+0x73b>
    2a7a:	8b 55 ec             	mov    -0x14(%rbp),%edx
    2a7d:	48 8d 85 b0 df ff ff 	lea    -0x2050(%rbp),%rax
    2a84:	89 d6                	mov    %edx,%esi
    2a86:	48 89 c7             	mov    %rax,%rdi
    2a89:	e8 ae f7 ff ff       	call   223c <rio_readinitb>
    2a8e:	48 8d 8d b0 bf ff ff 	lea    -0x4050(%rbp),%rcx
    2a95:	48 8d 85 b0 df ff ff 	lea    -0x2050(%rbp),%rax
    2a9c:	ba 00 20 00 00       	mov    $0x2000,%edx
    2aa1:	48 89 ce             	mov    %rcx,%rsi
    2aa4:	48 89 c7             	mov    %rax,%rdi
    2aa7:	e8 c0 f8 ff ff       	call   236c <rio_readlineb>
    2aac:	48 85 c0             	test   %rax,%rax
    2aaf:	7f 79                	jg     2b2a <submitr+0x52c>
    2ab1:	48 8b 45 10          	mov    0x10(%rbp),%rax
    2ab5:	48 bb 45 72 72 6f 72 	movabs $0x43203a726f727245,%rbx
    2abc:	3a 20 43 
    2abf:	48 be 6c 69 65 6e 74 	movabs $0x6e7520746e65696c,%rsi
    2ac6:	20 75 6e 
    2ac9:	48 89 18             	mov    %rbx,(%rax)
    2acc:	48 89 70 08          	mov    %rsi,0x8(%rax)
    2ad0:	48 ba 61 62 6c 65 20 	movabs $0x206f7420656c6261,%rdx
    2ad7:	74 6f 20 
    2ada:	48 b9 72 65 61 64 20 	movabs $0x7269662064616572,%rcx
    2ae1:	66 69 72 
    2ae4:	48 89 50 10          	mov    %rdx,0x10(%rax)
    2ae8:	48 89 48 18          	mov    %rcx,0x18(%rax)
    2aec:	48 bb 73 74 20 68 65 	movabs $0x6564616568207473,%rbx
    2af3:	61 64 65 
    2af6:	48 be 72 20 66 72 6f 	movabs $0x73206d6f72662072,%rsi
    2afd:	6d 20 73 
    2b00:	48 89 58 20          	mov    %rbx,0x20(%rax)
    2b04:	48 89 70 28          	mov    %rsi,0x28(%rax)
    2b08:	48 bf 20 73 65 72 76 	movabs $0x72657672657320,%rdi
    2b0f:	65 72 00 
    2b12:	48 89 78 2e          	mov    %rdi,0x2e(%rax)
    2b16:	8b 45 ec             	mov    -0x14(%rbp),%eax
    2b19:	89 c7                	mov    %eax,%edi
    2b1b:	e8 a0 e5 ff ff       	call   10c0 <close@plt>
    2b20:	b8 ff ff ff ff       	mov    $0xffffffff,%eax
    2b25:	e9 0f 02 00 00       	jmp    2d39 <submitr+0x73b>
    2b2a:	48 8d b5 f0 5f ff ff 	lea    -0xa010(%rbp),%rsi
    2b31:	48 8d 8d fc 7f ff ff 	lea    -0x8004(%rbp),%rcx
    2b38:	48 8d 95 00 80 ff ff 	lea    -0x8000(%rbp),%rdx
    2b3f:	48 8d 85 b0 bf ff ff 	lea    -0x4050(%rbp),%rax
    2b46:	49 89 f0             	mov    %rsi,%r8
    2b49:	48 8d 35 42 19 00 00 	lea    0x1942(%rip),%rsi        # 4492 <_IO_stdin_used+0x492>
    2b50:	48 89 c7             	mov    %rax,%rdi
    2b53:	b8 00 00 00 00       	mov    $0x0,%eax
    2b58:	e8 f3 e5 ff ff       	call   1150 <__isoc99_sscanf@plt>
    2b5d:	8b 85 fc 7f ff ff    	mov    -0x8004(%rbp),%eax
    2b63:	3d c8 00 00 00       	cmp    $0xc8,%eax
    2b68:	0f 84 cb 00 00 00    	je     2c39 <submitr+0x63b>
    2b6e:	8b 95 fc 7f ff ff    	mov    -0x8004(%rbp),%edx
    2b74:	48 8d 8d f0 5f ff ff 	lea    -0xa010(%rbp),%rcx
    2b7b:	48 8b 45 10          	mov    0x10(%rbp),%rax
    2b7f:	48 8d 35 22 19 00 00 	lea    0x1922(%rip),%rsi        # 44a8 <_IO_stdin_used+0x4a8>
    2b86:	48 89 c7             	mov    %rax,%rdi
    2b89:	b8 00 00 00 00       	mov    $0x0,%eax
    2b8e:	e8 ed e5 ff ff       	call   1180 <sprintf@plt>
    2b93:	8b 45 ec             	mov    -0x14(%rbp),%eax
    2b96:	89 c7                	mov    %eax,%edi
    2b98:	e8 23 e5 ff ff       	call   10c0 <close@plt>
    2b9d:	b8 ff ff ff ff       	mov    $0xffffffff,%eax
    2ba2:	e9 92 01 00 00       	jmp    2d39 <submitr+0x73b>
    2ba7:	48 8d 8d b0 bf ff ff 	lea    -0x4050(%rbp),%rcx
    2bae:	48 8d 85 b0 df ff ff 	lea    -0x2050(%rbp),%rax
    2bb5:	ba 00 20 00 00       	mov    $0x2000,%edx
    2bba:	48 89 ce             	mov    %rcx,%rsi
    2bbd:	48 89 c7             	mov    %rax,%rdi
    2bc0:	e8 a7 f7 ff ff       	call   236c <rio_readlineb>
    2bc5:	48 85 c0             	test   %rax,%rax
    2bc8:	7f 6f                	jg     2c39 <submitr+0x63b>
    2bca:	48 8b 45 10          	mov    0x10(%rbp),%rax
    2bce:	48 ba 45 72 72 6f 72 	movabs $0x43203a726f727245,%rdx
    2bd5:	3a 20 43 
    2bd8:	48 b9 6c 69 65 6e 74 	movabs $0x6e7520746e65696c,%rcx
    2bdf:	20 75 6e 
    2be2:	48 89 10             	mov    %rdx,(%rax)
    2be5:	48 89 48 08          	mov    %rcx,0x8(%rax)
    2be9:	48 bb 61 62 6c 65 20 	movabs $0x206f7420656c6261,%rbx
    2bf0:	74 6f 20 
    2bf3:	48 be 72 65 61 64 20 	movabs $0x6165682064616572,%rsi
    2bfa:	68 65 61 
    2bfd:	48 89 58 10          	mov    %rbx,0x10(%rax)
    2c01:	48 89 70 18          	mov    %rsi,0x18(%rax)
    2c05:	48 ba 64 65 72 73 20 	movabs $0x6f72662073726564,%rdx
    2c0c:	66 72 6f 
    2c0f:	48 b9 6d 20 73 65 72 	movabs $0x726576726573206d,%rcx
    2c16:	76 65 72 
    2c19:	48 89 50 20          	mov    %rdx,0x20(%rax)
    2c1d:	48 89 48 28          	mov    %rcx,0x28(%rax)
    2c21:	c6 40 30 00          	movb   $0x0,0x30(%rax)
    2c25:	8b 45 ec             	mov    -0x14(%rbp),%eax
    2c28:	89 c7                	mov    %eax,%edi
    2c2a:	e8 91 e4 ff ff       	call   10c0 <close@plt>
    2c2f:	b8 ff ff ff ff       	mov    $0xffffffff,%eax
    2c34:	e9 00 01 00 00       	jmp    2d39 <submitr+0x73b>
    2c39:	48 8d 85 b0 bf ff ff 	lea    -0x4050(%rbp),%rax
    2c40:	48 8d 15 8e 18 00 00 	lea    0x188e(%rip),%rdx        # 44d5 <_IO_stdin_used+0x4d5>
    2c47:	48 89 d6             	mov    %rdx,%rsi
    2c4a:	48 89 c7             	mov    %rax,%rdi
    2c4d:	e8 9e e4 ff ff       	call   10f0 <strcmp@plt>
    2c52:	85 c0                	test   %eax,%eax
    2c54:	0f 85 4d ff ff ff    	jne    2ba7 <submitr+0x5a9>
    2c5a:	48 8d 8d b0 bf ff ff 	lea    -0x4050(%rbp),%rcx
    2c61:	48 8d 85 b0 df ff ff 	lea    -0x2050(%rbp),%rax
    2c68:	ba 00 20 00 00       	mov    $0x2000,%edx
    2c6d:	48 89 ce             	mov    %rcx,%rsi
    2c70:	48 89 c7             	mov    %rax,%rdi
    2c73:	e8 f4 f6 ff ff       	call   236c <rio_readlineb>
    2c78:	48 85 c0             	test   %rax,%rax
    2c7b:	7f 76                	jg     2cf3 <submitr+0x6f5>
    2c7d:	48 8b 45 10          	mov    0x10(%rbp),%rax
    2c81:	48 bb 45 72 72 6f 72 	movabs $0x43203a726f727245,%rbx
    2c88:	3a 20 43 
    2c8b:	48 be 6c 69 65 6e 74 	movabs $0x6e7520746e65696c,%rsi
    2c92:	20 75 6e 
    2c95:	48 89 18             	mov    %rbx,(%rax)
    2c98:	48 89 70 08          	mov    %rsi,0x8(%rax)
    2c9c:	48 ba 61 62 6c 65 20 	movabs $0x206f7420656c6261,%rdx
    2ca3:	74 6f 20 
    2ca6:	48 b9 72 65 61 64 20 	movabs $0x6174732064616572,%rcx
    2cad:	73 74 61 
    2cb0:	48 89 50 10          	mov    %rdx,0x10(%rax)
    2cb4:	48 89 48 18          	mov    %rcx,0x18(%rax)
    2cb8:	48 bb 74 75 73 20 6d 	movabs $0x7373656d20737574,%rbx
    2cbf:	65 73 73 
    2cc2:	48 be 61 67 65 20 66 	movabs $0x6d6f726620656761,%rsi
    2cc9:	72 6f 6d 
    2ccc:	48 89 58 20          	mov    %rbx,0x20(%rax)
    2cd0:	48 89 70 28          	mov    %rsi,0x28(%rax)
    2cd4:	48 bf 20 73 65 72 76 	movabs $0x72657672657320,%rdi
    2cdb:	65 72 00 
    2cde:	48 89 78 30          	mov    %rdi,0x30(%rax)
    2ce2:	8b 45 ec             	mov    -0x14(%rbp),%eax
    2ce5:	89 c7                	mov    %eax,%edi
    2ce7:	e8 d4 e3 ff ff       	call   10c0 <close@plt>
    2cec:	b8 ff ff ff ff       	mov    $0xffffffff,%eax
    2cf1:	eb 46                	jmp    2d39 <submitr+0x73b>
    2cf3:	48 8d 95 b0 bf ff ff 	lea    -0x4050(%rbp),%rdx
    2cfa:	48 8b 45 10          	mov    0x10(%rbp),%rax
    2cfe:	48 89 d6             	mov    %rdx,%rsi
    2d01:	48 89 c7             	mov    %rax,%rdi
    2d04:	e8 47 e3 ff ff       	call   1050 <strcpy@plt>
    2d09:	8b 45 ec             	mov    -0x14(%rbp),%eax
    2d0c:	89 c7                	mov    %eax,%edi
    2d0e:	e8 ad e3 ff ff       	call   10c0 <close@plt>
    2d13:	48 8b 45 10          	mov    0x10(%rbp),%rax
    2d17:	48 8d 15 ba 17 00 00 	lea    0x17ba(%rip),%rdx        # 44d8 <_IO_stdin_used+0x4d8>
    2d1e:	48 89 d6             	mov    %rdx,%rsi
    2d21:	48 89 c7             	mov    %rax,%rdi
    2d24:	e8 c7 e3 ff ff       	call   10f0 <strcmp@plt>
    2d29:	85 c0                	test   %eax,%eax
    2d2b:	75 07                	jne    2d34 <submitr+0x736>
    2d2d:	b8 00 00 00 00       	mov    $0x0,%eax
    2d32:	eb 05                	jmp    2d39 <submitr+0x73b>
    2d34:	b8 ff ff ff ff       	mov    $0xffffffff,%eax
    2d39:	48 8b 5d f8          	mov    -0x8(%rbp),%rbx
    2d3d:	c9                   	leave
    2d3e:	c3                   	ret

0000000000002d3f <init_timeout>:
    2d3f:	55                   	push   %rbp
    2d40:	48 89 e5             	mov    %rsp,%rbp
    2d43:	48 83 ec 10          	sub    $0x10,%rsp
    2d47:	89 7d fc             	mov    %edi,-0x4(%rbp)
    2d4a:	83 7d fc 00          	cmpl   $0x0,-0x4(%rbp)
    2d4e:	74 2d                	je     2d7d <init_timeout+0x3e>
    2d50:	83 7d fc 00          	cmpl   $0x0,-0x4(%rbp)
    2d54:	79 07                	jns    2d5d <init_timeout+0x1e>
    2d56:	c7 45 fc 00 00 00 00 	movl   $0x0,-0x4(%rbp)
    2d5d:	48 8d 05 a0 f4 ff ff 	lea    -0xb60(%rip),%rax        # 2204 <sigalrm_handler>
    2d64:	48 89 c6             	mov    %rax,%rsi
    2d67:	bf 0e 00 00 00       	mov    $0xe,%edi
    2d6c:	e8 8f e3 ff ff       	call   1100 <signal@plt>
    2d71:	8b 45 fc             	mov    -0x4(%rbp),%eax
    2d74:	89 c7                	mov    %eax,%edi
    2d76:	e8 35 e3 ff ff       	call   10b0 <alarm@plt>
    2d7b:	eb 01                	jmp    2d7e <init_timeout+0x3f>
    2d7d:	90                   	nop
    2d7e:	c9                   	leave
    2d7f:	c3                   	ret

0000000000002d80 <init_driver>:
    2d80:	55                   	push   %rbp
    2d81:	48 89 e5             	mov    %rsp,%rbp
    2d84:	48 83 ec 40          	sub    $0x40,%rsp
    2d88:	48 89 7d c8          	mov    %rdi,-0x38(%rbp)
    2d8c:	48 8d 05 48 17 00 00 	lea    0x1748(%rip),%rax        # 44db <_IO_stdin_used+0x4db>
    2d93:	48 89 45 f8          	mov    %rax,-0x8(%rbp)
    2d97:	c7 45 f4 6e 3b 00 00 	movl   $0x3b6e,-0xc(%rbp)
    2d9e:	be 01 00 00 00       	mov    $0x1,%esi
    2da3:	bf 0d 00 00 00       	mov    $0xd,%edi
    2da8:	e8 53 e3 ff ff       	call   1100 <signal@plt>
    2dad:	be 01 00 00 00       	mov    $0x1,%esi
    2db2:	bf 1d 00 00 00       	mov    $0x1d,%edi
    2db7:	e8 44 e3 ff ff       	call   1100 <signal@plt>
    2dbc:	be 01 00 00 00       	mov    $0x1,%esi
    2dc1:	bf 1d 00 00 00       	mov    $0x1d,%edi
    2dc6:	e8 35 e3 ff ff       	call   1100 <signal@plt>
    2dcb:	ba 00 00 00 00       	mov    $0x0,%edx
    2dd0:	be 01 00 00 00       	mov    $0x1,%esi
    2dd5:	bf 02 00 00 00       	mov    $0x2,%edi
    2dda:	e8 f1 e3 ff ff       	call   11d0 <socket@plt>
    2ddf:	89 45 f0             	mov    %eax,-0x10(%rbp)
    2de2:	83 7d f0 00          	cmpl   $0x0,-0x10(%rbp)
    2de6:	79 53                	jns    2e3b <init_driver+0xbb>
    2de8:	48 8b 45 c8          	mov    -0x38(%rbp),%rax
    2dec:	48 be 45 72 72 6f 72 	movabs $0x43203a726f727245,%rsi
    2df3:	3a 20 43 
    2df6:	48 bf 6c 69 65 6e 74 	movabs $0x6e7520746e65696c,%rdi
    2dfd:	20 75 6e 
    2e00:	48 89 30             	mov    %rsi,(%rax)
    2e03:	48 89 78 08          	mov    %rdi,0x8(%rax)
    2e07:	48 ba 61 62 6c 65 20 	movabs $0x206f7420656c6261,%rdx
    2e0e:	74 6f 20 
    2e11:	48 b9 63 72 65 61 74 	movabs $0x7320657461657263,%rcx
    2e18:	65 20 73 
    2e1b:	48 89 50 10          	mov    %rdx,0x10(%rax)
    2e1f:	48 89 48 18          	mov    %rcx,0x18(%rax)
    2e23:	48 ba 20 73 6f 63 6b 	movabs $0x74656b636f7320,%rdx
    2e2a:	65 74 00 
    2e2d:	48 89 50 1e          	mov    %rdx,0x1e(%rax)
    2e31:	b8 ff ff ff ff       	mov    $0xffffffff,%eax
    2e36:	e9 32 01 00 00       	jmp    2f6d <init_driver+0x1ed>
    2e3b:	48 8b 45 f8          	mov    -0x8(%rbp),%rax
    2e3f:	48 89 c7             	mov    %rax,%rdi
    2e42:	e8 c9 e2 ff ff       	call   1110 <gethostbyname@plt>
    2e47:	48 89 45 e8          	mov    %rax,-0x18(%rbp)
    2e4b:	48 83 7d e8 00       	cmpq   $0x0,-0x18(%rbp)
    2e50:	75 6b                	jne    2ebd <init_driver+0x13d>
    2e52:	48 8b 45 c8          	mov    -0x38(%rbp),%rax
    2e56:	48 be 45 72 72 6f 72 	movabs $0x44203a726f727245,%rsi
    2e5d:	3a 20 44 
    2e60:	48 bf 4e 53 20 69 73 	movabs $0x6e7520736920534e,%rdi
    2e67:	20 75 6e 
    2e6a:	48 89 30             	mov    %rsi,(%rax)
    2e6d:	48 89 78 08          	mov    %rdi,0x8(%rax)
    2e71:	48 ba 61 62 6c 65 20 	movabs $0x206f7420656c6261,%rdx
    2e78:	74 6f 20 
    2e7b:	48 b9 72 65 73 6f 6c 	movabs $0x2065766c6f736572,%rcx
    2e82:	76 65 20 
    2e85:	48 89 50 10          	mov    %rdx,0x10(%rax)
    2e89:	48 89 48 18          	mov    %rcx,0x18(%rax)
    2e8d:	48 be 20 73 65 72 76 	movabs $0x2072657672657320,%rsi
    2e94:	65 72 20 
    2e97:	48 bf 61 64 64 72 65 	movabs $0x73736572646461,%rdi
    2e9e:	73 73 00 
    2ea1:	48 89 70 1f          	mov    %rsi,0x1f(%rax)
    2ea5:	48 89 78 27          	mov    %rdi,0x27(%rax)
    2ea9:	8b 45 f0             	mov    -0x10(%rbp),%eax
    2eac:	89 c7                	mov    %eax,%edi
    2eae:	e8 0d e2 ff ff       	call   10c0 <close@plt>
    2eb3:	b8 ff ff ff ff       	mov    $0xffffffff,%eax
    2eb8:	e9 b0 00 00 00       	jmp    2f6d <init_driver+0x1ed>
    2ebd:	48 8d 45 d0          	lea    -0x30(%rbp),%rax
    2ec1:	66 0f ef c0          	pxor   %xmm0,%xmm0
    2ec5:	0f 29 00             	movaps %xmm0,(%rax)
    2ec8:	66 c7 45 d0 02 00    	movw   $0x2,-0x30(%rbp)
    2ece:	48 8b 45 e8          	mov    -0x18(%rbp),%rax
    2ed2:	8b 40 14             	mov    0x14(%rax),%eax
    2ed5:	48 63 d0             	movslq %eax,%rdx
    2ed8:	48 8b 45 e8          	mov    -0x18(%rbp),%rax
    2edc:	48 8b 40 18          	mov    0x18(%rax),%rax
    2ee0:	48 8b 00             	mov    (%rax),%rax
    2ee3:	48 8d 4d d0          	lea    -0x30(%rbp),%rcx
    2ee7:	48 83 c1 04          	add    $0x4,%rcx
    2eeb:	48 89 c6             	mov    %rax,%rsi
    2eee:	48 89 cf             	mov    %rcx,%rdi
    2ef1:	e8 6a e2 ff ff       	call   1160 <memmove@plt>
    2ef6:	8b 45 f4             	mov    -0xc(%rbp),%eax
    2ef9:	0f b7 c0             	movzwl %ax,%eax
    2efc:	89 c7                	mov    %eax,%edi
    2efe:	e8 8d e1 ff ff       	call   1090 <htons@plt>
    2f03:	66 89 45 d2          	mov    %ax,-0x2e(%rbp)
    2f07:	48 8d 4d d0          	lea    -0x30(%rbp),%rcx
    2f0b:	8b 45 f0             	mov    -0x10(%rbp),%eax
    2f0e:	ba 10 00 00 00       	mov    $0x10,%edx
    2f13:	48 89 ce             	mov    %rcx,%rsi
    2f16:	89 c7                	mov    %eax,%edi
    2f18:	e8 83 e2 ff ff       	call   11a0 <connect@plt>
    2f1d:	85 c0                	test   %eax,%eax
    2f1f:	79 30                	jns    2f51 <init_driver+0x1d1>
    2f21:	48 8b 55 f8          	mov    -0x8(%rbp),%rdx
    2f25:	48 8b 45 c8          	mov    -0x38(%rbp),%rax
    2f29:	48 8d 0d b8 15 00 00 	lea    0x15b8(%rip),%rcx        # 44e8 <_IO_stdin_used+0x4e8>
    2f30:	48 89 ce             	mov    %rcx,%rsi
    2f33:	48 89 c7             	mov    %rax,%rdi
    2f36:	b8 00 00 00 00       	mov    $0x0,%eax
    2f3b:	e8 40 e2 ff ff       	call   1180 <sprintf@plt>
    2f40:	8b 45 f0             	mov    -0x10(%rbp),%eax
    2f43:	89 c7                	mov    %eax,%edi
    2f45:	e8 76 e1 ff ff       	call   10c0 <close@plt>
    2f4a:	b8 ff ff ff ff       	mov    $0xffffffff,%eax
    2f4f:	eb 1c                	jmp    2f6d <init_driver+0x1ed>
    2f51:	8b 45 f0             	mov    -0x10(%rbp),%eax
    2f54:	89 c7                	mov    %eax,%edi
    2f56:	e8 65 e1 ff ff       	call   10c0 <close@plt>
    2f5b:	48 8b 45 c8          	mov    -0x38(%rbp),%rax
    2f5f:	66 c7 00 4f 4b       	movw   $0x4b4f,(%rax)
    2f64:	c6 40 02 00          	movb   $0x0,0x2(%rax)
    2f68:	b8 00 00 00 00       	mov    $0x0,%eax
    2f6d:	c9                   	leave
    2f6e:	c3                   	ret

0000000000002f6f <driver_post>:
    2f6f:	55                   	push   %rbp
    2f70:	48 89 e5             	mov    %rsp,%rbp
    2f73:	48 83 ec 30          	sub    $0x30,%rsp
    2f77:	48 89 7d e8          	mov    %rdi,-0x18(%rbp)
    2f7b:	48 89 75 e0          	mov    %rsi,-0x20(%rbp)
    2f7f:	89 55 dc             	mov    %edx,-0x24(%rbp)
    2f82:	48 89 4d d0          	mov    %rcx,-0x30(%rbp)
    2f86:	83 7d dc 00          	cmpl   $0x0,-0x24(%rbp)
    2f8a:	74 2f                	je     2fbb <driver_post+0x4c>
    2f8c:	48 8b 45 e0          	mov    -0x20(%rbp),%rax
    2f90:	48 89 c6             	mov    %rax,%rsi
    2f93:	48 8d 05 74 15 00 00 	lea    0x1574(%rip),%rax        # 450e <_IO_stdin_used+0x50e>
    2f9a:	48 89 c7             	mov    %rax,%rdi
    2f9d:	b8 00 00 00 00       	mov    $0x0,%eax
    2fa2:	e8 f9 e0 ff ff       	call   10a0 <printf@plt>
    2fa7:	48 8b 45 d0          	mov    -0x30(%rbp),%rax
    2fab:	66 c7 00 4f 4b       	movw   $0x4b4f,(%rax)
    2fb0:	c6 40 02 00          	movb   $0x0,0x2(%rax)
    2fb4:	b8 00 00 00 00       	mov    $0x0,%eax
    2fb9:	eb 6d                	jmp    3028 <driver_post+0xb9>
    2fbb:	48 83 7d e8 00       	cmpq   $0x0,-0x18(%rbp)
    2fc0:	74 54                	je     3016 <driver_post+0xa7>
    2fc2:	48 8b 45 e8          	mov    -0x18(%rbp),%rax
    2fc6:	0f b6 00             	movzbl (%rax),%eax
    2fc9:	0f b6 c0             	movzbl %al,%eax
    2fcc:	85 c0                	test   %eax,%eax
    2fce:	74 46                	je     3016 <driver_post+0xa7>
    2fd0:	48 8b 55 e0          	mov    -0x20(%rbp),%rdx
    2fd4:	48 8b 45 e8          	mov    -0x18(%rbp),%rax
    2fd8:	48 83 ec 08          	sub    $0x8,%rsp
    2fdc:	ff 75 d0             	push   -0x30(%rbp)
    2fdf:	49 89 d1             	mov    %rdx,%r9
    2fe2:	4c 8d 05 3c 15 00 00 	lea    0x153c(%rip),%r8        # 4525 <_IO_stdin_used+0x525>
    2fe9:	48 89 c1             	mov    %rax,%rcx
    2fec:	48 8d 05 3a 15 00 00 	lea    0x153a(%rip),%rax        # 452d <_IO_stdin_used+0x52d>
    2ff3:	48 89 c2             	mov    %rax,%rdx
    2ff6:	be 6e 3b 00 00       	mov    $0x3b6e,%esi
    2ffb:	48 8d 05 d9 14 00 00 	lea    0x14d9(%rip),%rax        # 44db <_IO_stdin_used+0x4db>
    3002:	48 89 c7             	mov    %rax,%rdi
    3005:	e8 f4 f5 ff ff       	call   25fe <submitr>
    300a:	48 83 c4 10          	add    $0x10,%rsp
    300e:	89 45 fc             	mov    %eax,-0x4(%rbp)
    3011:	8b 45 fc             	mov    -0x4(%rbp),%eax
    3014:	eb 12                	jmp    3028 <driver_post+0xb9>
    3016:	48 8b 45 d0          	mov    -0x30(%rbp),%rax
    301a:	66 c7 00 4f 4b       	movw   $0x4b4f,(%rax)
    301f:	c6 40 02 00          	movb   $0x0,0x2(%rax)
    3023:	b8 00 00 00 00       	mov    $0x0,%eax
    3028:	c9                   	leave
    3029:	c3                   	ret

Disassembly of section .fini:

000000000000302c <_fini>:
    302c:	48 83 ec 08          	sub    $0x8,%rsp
    3030:	48 83 c4 08          	add    $0x8,%rsp
    3034:	c3                   	ret
